ARM GAS  C:\Users\YKESH~1\AppData\Local\Temp\cczG1trH.s 			page 1


   1              		.cpu cortex-m4
   2              		.arch armv7e-m
   3              		.fpu fpv4-sp-d16
   4              		.eabi_attribute 27, 1
   5              		.eabi_attribute 28, 1
   6              		.eabi_attribute 20, 1
   7              		.eabi_attribute 21, 1
   8              		.eabi_attribute 23, 3
   9              		.eabi_attribute 24, 1
  10              		.eabi_attribute 25, 1
  11              		.eabi_attribute 26, 1
  12              		.eabi_attribute 30, 1
  13              		.eabi_attribute 34, 1
  14              		.eabi_attribute 18, 4
  15              		.file	"bsp_uart.c"
  16              		.text
  17              	.Ltext0:
  18              		.cfi_sections	.debug_frame
  19              		.section	.text.BSP_UART_Init,"ax",%progbits
  20              		.align	1
  21              		.global	BSP_UART_Init
  22              		.syntax unified
  23              		.thumb
  24              		.thumb_func
  26              	BSP_UART_Init:
  27              	.LFB235:
  28              		.file 1 "bsp/Src/bsp_uart.c"
   1:bsp/Src/bsp_uart.c **** #include "bsp_uart.h"
   2:bsp/Src/bsp_uart.c **** #include "string.h"
   3:bsp/Src/bsp_uart.c **** 
   4:bsp/Src/bsp_uart.c **** BSP_UART_Type uart_port[MAX_PORT_NUM] = {};
   5:bsp/Src/bsp_uart.c **** 
   6:bsp/Src/bsp_uart.c **** /***------初始化------***/
   7:bsp/Src/bsp_uart.c **** 
   8:bsp/Src/bsp_uart.c **** void BSP_UART_Init(void)
   9:bsp/Src/bsp_uart.c **** {
  29              		.loc 1 9 1 view -0
  30              		.cfi_startproc
  31              		@ args = 0, pretend = 0, frame = 0
  32              		@ frame_needed = 0, uses_anonymous_args = 0
  33 0000 38B5     		push	{r3, r4, r5, lr}
  34              	.LCFI0:
  35              		.cfi_def_cfa_offset 16
  36              		.cfi_offset 3, -16
  37              		.cfi_offset 4, -12
  38              		.cfi_offset 5, -8
  39              		.cfi_offset 14, -4
  10:bsp/Src/bsp_uart.c ****     uart_port[0].huart = &huart1;
  40              		.loc 1 10 5 view .LVU1
  41              		.loc 1 10 24 is_stmt 0 view .LVU2
  42 0002 134B     		ldr	r3, .L5
  43 0004 134A     		ldr	r2, .L5+4
  44 0006 C3F88422 		str	r2, [r3, #644]
  11:bsp/Src/bsp_uart.c ****     uart_port[1].huart = &huart2;
  45              		.loc 1 11 5 is_stmt 1 view .LVU3
  46              		.loc 1 11 24 is_stmt 0 view .LVU4
  47 000a 134A     		ldr	r2, .L5+8
ARM GAS  C:\Users\YKESH~1\AppData\Local\Temp\cczG1trH.s 			page 2


  48 000c C3F80C25 		str	r2, [r3, #1292]
  12:bsp/Src/bsp_uart.c ****     for (uint8_t i = 0; i < MAX_PORT_NUM; i++){
  49              		.loc 1 12 5 is_stmt 1 view .LVU5
  50              	.LBB2:
  51              		.loc 1 12 10 view .LVU6
  52              	.LVL0:
  53              		.loc 1 12 18 is_stmt 0 view .LVU7
  54 0010 0024     		movs	r4, #0
  55              		.loc 1 12 5 view .LVU8
  56 0012 19E0     		b	.L2
  57              	.LVL1:
  58              	.L3:
  13:bsp/Src/bsp_uart.c ****         __HAL_UART_ENABLE_IT(uart_port[i].huart, UART_IT_IDLE);
  59              		.loc 1 13 9 is_stmt 1 discriminator 3 view .LVU9
  60 0014 0E49     		ldr	r1, .L5
  61 0016 4FF42273 		mov	r3, #648
  62 001a 04FB03F3 		mul	r3, r4, r3
  63 001e CD18     		adds	r5, r1, r3
  64 0020 D5F88422 		ldr	r2, [r5, #644]
  65 0024 1068     		ldr	r0, [r2]
  66 0026 C268     		ldr	r2, [r0, #12]
  67 0028 42F01002 		orr	r2, r2, #16
  68 002c C260     		str	r2, [r0, #12]
  14:bsp/Src/bsp_uart.c ****         HAL_UART_Receive_DMA(uart_port[i].huart, uart_port[i].rxbuffer, MAX_BUF_LEN_R);
  69              		.loc 1 14 9 discriminator 3 view .LVU10
  70              		.loc 1 14 62 is_stmt 0 discriminator 3 view .LVU11
  71 002e 8033     		adds	r3, r3, #128
  72              		.loc 1 14 9 discriminator 3 view .LVU12
  73 0030 4FF40072 		mov	r2, #512
  74 0034 1944     		add	r1, r1, r3
  75 0036 D5F88402 		ldr	r0, [r5, #644]
  76 003a FFF7FEFF 		bl	HAL_UART_Receive_DMA
  77              	.LVL2:
  15:bsp/Src/bsp_uart.c ****         uart_port[i].user_func = NULL;
  78              		.loc 1 15 9 is_stmt 1 discriminator 3 view .LVU13
  79              		.loc 1 15 32 is_stmt 0 discriminator 3 view .LVU14
  80 003e 0023     		movs	r3, #0
  81 0040 C5F88032 		str	r3, [r5, #640]
  12:bsp/Src/bsp_uart.c ****         __HAL_UART_ENABLE_IT(uart_port[i].huart, UART_IT_IDLE);
  82              		.loc 1 12 43 is_stmt 1 discriminator 3 view .LVU15
  12:bsp/Src/bsp_uart.c ****         __HAL_UART_ENABLE_IT(uart_port[i].huart, UART_IT_IDLE);
  83              		.loc 1 12 44 is_stmt 0 discriminator 3 view .LVU16
  84 0044 0134     		adds	r4, r4, #1
  85              	.LVL3:
  12:bsp/Src/bsp_uart.c ****         __HAL_UART_ENABLE_IT(uart_port[i].huart, UART_IT_IDLE);
  86              		.loc 1 12 44 discriminator 3 view .LVU17
  87 0046 E4B2     		uxtb	r4, r4
  88              	.LVL4:
  89              	.L2:
  12:bsp/Src/bsp_uart.c ****         __HAL_UART_ENABLE_IT(uart_port[i].huart, UART_IT_IDLE);
  90              		.loc 1 12 25 is_stmt 1 discriminator 1 view .LVU18
  12:bsp/Src/bsp_uart.c ****         __HAL_UART_ENABLE_IT(uart_port[i].huart, UART_IT_IDLE);
  91              		.loc 1 12 5 is_stmt 0 discriminator 1 view .LVU19
  92 0048 012C     		cmp	r4, #1
  93 004a E3D9     		bls	.L3
  94              	.LBE2:
  16:bsp/Src/bsp_uart.c ****     }
ARM GAS  C:\Users\YKESH~1\AppData\Local\Temp\cczG1trH.s 			page 3


  17:bsp/Src/bsp_uart.c **** }
  95              		.loc 1 17 1 view .LVU20
  96 004c 38BD     		pop	{r3, r4, r5, pc}
  97              	.LVL5:
  98              	.L6:
  99              		.loc 1 17 1 view .LVU21
 100 004e 00BF     		.align	2
 101              	.L5:
 102 0050 00000000 		.word	.LANCHOR0
 103 0054 00000000 		.word	huart1
 104 0058 00000000 		.word	huart2
 105              		.cfi_endproc
 106              	.LFE235:
 108              		.section	.text.BSP_UART_IDLECallback,"ax",%progbits
 109              		.align	1
 110              		.global	BSP_UART_IDLECallback
 111              		.syntax unified
 112              		.thumb
 113              		.thumb_func
 115              	BSP_UART_IDLECallback:
 116              	.LVL6:
 117              	.LFB236:
  18:bsp/Src/bsp_uart.c **** 
  19:bsp/Src/bsp_uart.c **** /***------接收------***/
  20:bsp/Src/bsp_uart.c **** 
  21:bsp/Src/bsp_uart.c **** void BSP_UART_IDLECallback(UART_HandleTypeDef* huart)
  22:bsp/Src/bsp_uart.c **** {
 118              		.loc 1 22 1 is_stmt 1 view -0
 119              		.cfi_startproc
 120              		@ args = 0, pretend = 0, frame = 8
 121              		@ frame_needed = 0, uses_anonymous_args = 0
  23:bsp/Src/bsp_uart.c ****     if (0x00 != __HAL_UART_GET_FLAG(huart, UART_FLAG_IDLE)){
 122              		.loc 1 23 5 view .LVU23
 123              		.loc 1 23 17 is_stmt 0 view .LVU24
 124 0000 0368     		ldr	r3, [r0]
 125 0002 1A68     		ldr	r2, [r3]
 126              		.loc 1 23 8 view .LVU25
 127 0004 12F0100F 		tst	r2, #16
 128 0008 00D1     		bne	.L17
 129 000a 7047     		bx	lr
 130              	.L17:
  22:bsp/Src/bsp_uart.c ****     if (0x00 != __HAL_UART_GET_FLAG(huart, UART_FLAG_IDLE)){
 131              		.loc 1 22 1 view .LVU26
 132 000c 2DE9F041 		push	{r4, r5, r6, r7, r8, lr}
 133              	.LCFI1:
 134              		.cfi_def_cfa_offset 24
 135              		.cfi_offset 4, -24
 136              		.cfi_offset 5, -20
 137              		.cfi_offset 6, -16
 138              		.cfi_offset 7, -12
 139              		.cfi_offset 8, -8
 140              		.cfi_offset 14, -4
 141 0010 82B0     		sub	sp, sp, #8
 142              	.LCFI2:
 143              		.cfi_def_cfa_offset 32
 144 0012 0546     		mov	r5, r0
 145              	.LBB3:
ARM GAS  C:\Users\YKESH~1\AppData\Local\Temp\cczG1trH.s 			page 4


  24:bsp/Src/bsp_uart.c ****         __HAL_UART_CLEAR_IDLEFLAG(huart);
 146              		.loc 1 24 9 is_stmt 1 view .LVU27
 147              	.LBB4:
 148              		.loc 1 24 9 view .LVU28
 149 0014 0024     		movs	r4, #0
 150 0016 0194     		str	r4, [sp, #4]
 151              		.loc 1 24 9 view .LVU29
 152 0018 1A68     		ldr	r2, [r3]
 153 001a 0192     		str	r2, [sp, #4]
 154              		.loc 1 24 9 view .LVU30
 155 001c 5B68     		ldr	r3, [r3, #4]
 156 001e 0193     		str	r3, [sp, #4]
 157              		.loc 1 24 9 view .LVU31
 158 0020 019B     		ldr	r3, [sp, #4]
 159              	.LBE4:
 160              		.loc 1 24 9 view .LVU32
  25:bsp/Src/bsp_uart.c ****         HAL_UART_DMAStop(huart);
 161              		.loc 1 25 9 view .LVU33
 162 0022 FFF7FEFF 		bl	HAL_UART_DMAStop
 163              	.LVL7:
  26:bsp/Src/bsp_uart.c ****         uint16_t len = MAX_BUF_LEN_R - __HAL_DMA_GET_COUNTER(huart->hdmarx);
 164              		.loc 1 26 9 view .LVU34
 165              		.loc 1 26 40 is_stmt 0 view .LVU35
 166 0026 AB6B     		ldr	r3, [r5, #56]
 167 0028 1B68     		ldr	r3, [r3]
 168 002a 5A68     		ldr	r2, [r3, #4]
 169              		.loc 1 26 38 view .LVU36
 170 002c 92B2     		uxth	r2, r2
 171              		.loc 1 26 18 view .LVU37
 172 002e C2F50072 		rsb	r2, r2, #512
 173 0032 96B2     		uxth	r6, r2
 174              	.LVL8:
  27:bsp/Src/bsp_uart.c ****         
  28:bsp/Src/bsp_uart.c ****         for (uint8_t i = 0; i < MAX_PORT_NUM; i++){
 175              		.loc 1 28 9 is_stmt 1 view .LVU38
 176              	.LBB5:
 177              		.loc 1 28 14 view .LVU39
 178              		.loc 1 28 9 is_stmt 0 view .LVU40
 179 0034 0DE0     		b	.L9
 180              	.LVL9:
 181              	.L11:
  29:bsp/Src/bsp_uart.c ****             if (huart == uart_port[i].huart){
  30:bsp/Src/bsp_uart.c ****                 if(uart_port[i].user_func != NULL)
  31:bsp/Src/bsp_uart.c ****                     (*(uart_port[i].user_func))(huart, uart_port[i].rxbuffer, len);
  32:bsp/Src/bsp_uart.c ****                 HAL_UART_Receive_DMA(huart, uart_port[i].rxbuffer, MAX_BUF_LEN_R);
 182              		.loc 1 32 17 is_stmt 1 view .LVU41
 183              		.loc 1 32 57 is_stmt 0 view .LVU42
 184 0036 4FF42271 		mov	r1, #648
 185 003a 01FB07F7 		mul	r7, r1, r7
 186 003e 8037     		adds	r7, r7, #128
 187              		.loc 1 32 17 view .LVU43
 188 0040 4FF40072 		mov	r2, #512
 189 0044 1349     		ldr	r1, .L19
 190 0046 3944     		add	r1, r1, r7
 191 0048 2846     		mov	r0, r5
 192 004a FFF7FEFF 		bl	HAL_UART_Receive_DMA
 193              	.LVL10:
ARM GAS  C:\Users\YKESH~1\AppData\Local\Temp\cczG1trH.s 			page 5


 194              	.L10:
  28:bsp/Src/bsp_uart.c ****             if (huart == uart_port[i].huart){
 195              		.loc 1 28 47 is_stmt 1 discriminator 2 view .LVU44
  28:bsp/Src/bsp_uart.c ****             if (huart == uart_port[i].huart){
 196              		.loc 1 28 48 is_stmt 0 discriminator 2 view .LVU45
 197 004e 0134     		adds	r4, r4, #1
 198              	.LVL11:
  28:bsp/Src/bsp_uart.c ****             if (huart == uart_port[i].huart){
 199              		.loc 1 28 48 discriminator 2 view .LVU46
 200 0050 E4B2     		uxtb	r4, r4
 201              	.LVL12:
 202              	.L9:
  28:bsp/Src/bsp_uart.c ****             if (huart == uart_port[i].huart){
 203              		.loc 1 28 29 is_stmt 1 discriminator 1 view .LVU47
  28:bsp/Src/bsp_uart.c ****             if (huart == uart_port[i].huart){
 204              		.loc 1 28 9 is_stmt 0 discriminator 1 view .LVU48
 205 0052 012C     		cmp	r4, #1
 206 0054 1BD8     		bhi	.L18
  29:bsp/Src/bsp_uart.c ****             if (huart == uart_port[i].huart){
 207              		.loc 1 29 13 is_stmt 1 view .LVU49
  29:bsp/Src/bsp_uart.c ****             if (huart == uart_port[i].huart){
 208              		.loc 1 29 38 is_stmt 0 view .LVU50
 209 0056 2746     		mov	r7, r4
 210 0058 0E4B     		ldr	r3, .L19
 211 005a 4FF42272 		mov	r2, #648
 212 005e 02FB0433 		mla	r3, r2, r4, r3
 213 0062 D3F88432 		ldr	r3, [r3, #644]
  29:bsp/Src/bsp_uart.c ****             if (huart == uart_port[i].huart){
 214              		.loc 1 29 16 view .LVU51
 215 0066 AB42     		cmp	r3, r5
 216 0068 F1D1     		bne	.L10
  30:bsp/Src/bsp_uart.c ****                     (*(uart_port[i].user_func))(huart, uart_port[i].rxbuffer, len);
 217              		.loc 1 30 17 is_stmt 1 view .LVU52
  30:bsp/Src/bsp_uart.c ****                     (*(uart_port[i].user_func))(huart, uart_port[i].rxbuffer, len);
 218              		.loc 1 30 32 is_stmt 0 view .LVU53
 219 006a 0A4B     		ldr	r3, .L19
 220 006c 02FB0433 		mla	r3, r2, r4, r3
 221 0070 D3F88082 		ldr	r8, [r3, #640]
  30:bsp/Src/bsp_uart.c ****                     (*(uart_port[i].user_func))(huart, uart_port[i].rxbuffer, len);
 222              		.loc 1 30 19 view .LVU54
 223 0074 B8F1000F 		cmp	r8, #0
 224 0078 DDD0     		beq	.L11
  31:bsp/Src/bsp_uart.c ****                 HAL_UART_Receive_DMA(huart, uart_port[i].rxbuffer, MAX_BUF_LEN_R);
 225              		.loc 1 31 21 is_stmt 1 view .LVU55
  31:bsp/Src/bsp_uart.c ****                 HAL_UART_Receive_DMA(huart, uart_port[i].rxbuffer, MAX_BUF_LEN_R);
 226              		.loc 1 31 68 is_stmt 0 view .LVU56
 227 007a 1346     		mov	r3, r2
 228 007c 04FB03F3 		mul	r3, r4, r3
 229 0080 8033     		adds	r3, r3, #128
  31:bsp/Src/bsp_uart.c ****                 HAL_UART_Receive_DMA(huart, uart_port[i].rxbuffer, MAX_BUF_LEN_R);
 230              		.loc 1 31 22 view .LVU57
 231 0082 3246     		mov	r2, r6
 232 0084 0349     		ldr	r1, .L19
 233 0086 1944     		add	r1, r1, r3
 234 0088 2846     		mov	r0, r5
 235 008a C047     		blx	r8
 236              	.LVL13:
ARM GAS  C:\Users\YKESH~1\AppData\Local\Temp\cczG1trH.s 			page 6


 237 008c D3E7     		b	.L11
 238              	.L18:
  31:bsp/Src/bsp_uart.c ****                 HAL_UART_Receive_DMA(huart, uart_port[i].rxbuffer, MAX_BUF_LEN_R);
 239              		.loc 1 31 22 view .LVU58
 240              	.LBE5:
 241              	.LBE3:
  33:bsp/Src/bsp_uart.c ****             }
  34:bsp/Src/bsp_uart.c ****         }
  35:bsp/Src/bsp_uart.c ****     }
  36:bsp/Src/bsp_uart.c **** }
 242              		.loc 1 36 1 view .LVU59
 243 008e 02B0     		add	sp, sp, #8
 244              	.LCFI3:
 245              		.cfi_def_cfa_offset 24
 246              		@ sp needed
 247 0090 BDE8F081 		pop	{r4, r5, r6, r7, r8, pc}
 248              	.LVL14:
 249              	.L20:
 250              		.loc 1 36 1 view .LVU60
 251              		.align	2
 252              	.L19:
 253 0094 00000000 		.word	.LANCHOR0
 254              		.cfi_endproc
 255              	.LFE236:
 257              		.section	.text.BSP_UART_IRQHandler,"ax",%progbits
 258              		.align	1
 259              		.global	BSP_UART_IRQHandler
 260              		.syntax unified
 261              		.thumb
 262              		.thumb_func
 264              	BSP_UART_IRQHandler:
 265              	.LVL15:
 266              	.LFB237:
  37:bsp/Src/bsp_uart.c **** 
  38:bsp/Src/bsp_uart.c **** void BSP_UART_IRQHandler(UART_HandleTypeDef* huart)
  39:bsp/Src/bsp_uart.c **** {
 267              		.loc 1 39 1 is_stmt 1 view -0
 268              		.cfi_startproc
 269              		@ args = 0, pretend = 0, frame = 0
 270              		@ frame_needed = 0, uses_anonymous_args = 0
 271              		.loc 1 39 1 is_stmt 0 view .LVU62
 272 0000 08B5     		push	{r3, lr}
 273              	.LCFI4:
 274              		.cfi_def_cfa_offset 8
 275              		.cfi_offset 3, -8
 276              		.cfi_offset 14, -4
  40:bsp/Src/bsp_uart.c ****     BSP_UART_IDLECallback(huart);
 277              		.loc 1 40 5 is_stmt 1 view .LVU63
 278 0002 FFF7FEFF 		bl	BSP_UART_IDLECallback
 279              	.LVL16:
  41:bsp/Src/bsp_uart.c **** }
 280              		.loc 1 41 1 is_stmt 0 view .LVU64
 281 0006 08BD     		pop	{r3, pc}
 282              		.cfi_endproc
 283              	.LFE237:
 285              		.section	.text.BSP_UART_send,"ax",%progbits
 286              		.align	1
ARM GAS  C:\Users\YKESH~1\AppData\Local\Temp\cczG1trH.s 			page 7


 287              		.global	BSP_UART_send
 288              		.syntax unified
 289              		.thumb
 290              		.thumb_func
 292              	BSP_UART_send:
 293              	.LVL17:
 294              	.LFB238:
  42:bsp/Src/bsp_uart.c **** 
  43:bsp/Src/bsp_uart.c **** /***------发送------***/
  44:bsp/Src/bsp_uart.c **** 
  45:bsp/Src/bsp_uart.c **** void BSP_UART_send(uint8_t port_index, uint8_t* pdata, uint16_t len)
  46:bsp/Src/bsp_uart.c **** {
 295              		.loc 1 46 1 is_stmt 1 view -0
 296              		.cfi_startproc
 297              		@ args = 0, pretend = 0, frame = 0
 298              		@ frame_needed = 0, uses_anonymous_args = 0
 299              		.loc 1 46 1 is_stmt 0 view .LVU66
 300 0000 38B5     		push	{r3, r4, r5, lr}
 301              	.LCFI5:
 302              		.cfi_def_cfa_offset 16
 303              		.cfi_offset 3, -16
 304              		.cfi_offset 4, -12
 305              		.cfi_offset 5, -8
 306              		.cfi_offset 14, -4
 307 0002 1546     		mov	r5, r2
  47:bsp/Src/bsp_uart.c ****     memcpy(uart_port[port_index].txbuffer, pdata, len);
 308              		.loc 1 47 5 is_stmt 1 view .LVU67
 309              		.loc 1 47 33 is_stmt 0 view .LVU68
 310 0004 074C     		ldr	r4, .L25
 311 0006 4FF42273 		mov	r3, #648
 312 000a 03FB0044 		mla	r4, r3, r0, r4
 313              		.loc 1 47 5 view .LVU69
 314 000e 2046     		mov	r0, r4
 315              	.LVL18:
 316              		.loc 1 47 5 view .LVU70
 317 0010 FFF7FEFF 		bl	memcpy
 318              	.LVL19:
  48:bsp/Src/bsp_uart.c ****     HAL_UART_Transmit_IT(uart_port[port_index].huart, uart_port[port_index].txbuffer, len);
 319              		.loc 1 48 5 is_stmt 1 view .LVU71
 320 0014 2A46     		mov	r2, r5
 321 0016 2146     		mov	r1, r4
 322 0018 D4F88402 		ldr	r0, [r4, #644]
 323 001c FFF7FEFF 		bl	HAL_UART_Transmit_IT
 324              	.LVL20:
  49:bsp/Src/bsp_uart.c **** }
 325              		.loc 1 49 1 is_stmt 0 view .LVU72
 326 0020 38BD     		pop	{r3, r4, r5, pc}
 327              	.L26:
 328 0022 00BF     		.align	2
 329              	.L25:
 330 0024 00000000 		.word	.LANCHOR0
 331              		.cfi_endproc
 332              	.LFE238:
 334              		.section	.text.BSP_UART_Txcpltcallback,"ax",%progbits
 335              		.align	1
 336              		.global	BSP_UART_Txcpltcallback
 337              		.syntax unified
ARM GAS  C:\Users\YKESH~1\AppData\Local\Temp\cczG1trH.s 			page 8


 338              		.thumb
 339              		.thumb_func
 341              	BSP_UART_Txcpltcallback:
 342              	.LVL21:
 343              	.LFB239:
  50:bsp/Src/bsp_uart.c **** 
  51:bsp/Src/bsp_uart.c **** void BSP_UART_Txcpltcallback(UART_HandleTypeDef* huart)
  52:bsp/Src/bsp_uart.c **** {
 344              		.loc 1 52 1 is_stmt 1 view -0
 345              		.cfi_startproc
 346              		@ args = 0, pretend = 0, frame = 0
 347              		@ frame_needed = 0, uses_anonymous_args = 0
 348              		@ link register save eliminated.
  53:bsp/Src/bsp_uart.c ****     
  54:bsp/Src/bsp_uart.c **** }
 349              		.loc 1 54 1 view .LVU74
 350 0000 7047     		bx	lr
 351              		.cfi_endproc
 352              	.LFE239:
 354              		.section	.text.HAL_UART_TxCpltCallback,"ax",%progbits
 355              		.align	1
 356              		.global	HAL_UART_TxCpltCallback
 357              		.syntax unified
 358              		.thumb
 359              		.thumb_func
 361              	HAL_UART_TxCpltCallback:
 362              	.LVL22:
 363              	.LFB240:
  55:bsp/Src/bsp_uart.c **** 
  56:bsp/Src/bsp_uart.c **** void HAL_UART_TxCpltCallback(UART_HandleTypeDef* huart)
  57:bsp/Src/bsp_uart.c **** {
 364              		.loc 1 57 1 view -0
 365              		.cfi_startproc
 366              		@ args = 0, pretend = 0, frame = 0
 367              		@ frame_needed = 0, uses_anonymous_args = 0
 368              		@ link register save eliminated.
  58:bsp/Src/bsp_uart.c ****     BSP_UART_Txcpltcallback(huart);
 369              		.loc 1 58 5 view .LVU76
  59:bsp/Src/bsp_uart.c **** }
 370              		.loc 1 59 1 is_stmt 0 view .LVU77
 371 0000 7047     		bx	lr
 372              		.cfi_endproc
 373              	.LFE240:
 375              		.section	.text.BSP_UART_registerfunc,"ax",%progbits
 376              		.align	1
 377              		.global	BSP_UART_registerfunc
 378              		.syntax unified
 379              		.thumb
 380              		.thumb_func
 382              	BSP_UART_registerfunc:
 383              	.LVL23:
 384              	.LFB241:
  60:bsp/Src/bsp_uart.c **** 
  61:bsp/Src/bsp_uart.c **** /***------设置callback函数------***/
  62:bsp/Src/bsp_uart.c **** 
  63:bsp/Src/bsp_uart.c **** void BSP_UART_registerfunc(rx_handle_func* user_func, uint8_t port_index)
  64:bsp/Src/bsp_uart.c **** {
ARM GAS  C:\Users\YKESH~1\AppData\Local\Temp\cczG1trH.s 			page 9


 385              		.loc 1 64 1 is_stmt 1 view -0
 386              		.cfi_startproc
 387              		@ args = 0, pretend = 0, frame = 0
 388              		@ frame_needed = 0, uses_anonymous_args = 0
 389              		@ link register save eliminated.
  65:bsp/Src/bsp_uart.c ****     uart_port[port_index].user_func = user_func;
 390              		.loc 1 65 5 view .LVU79
 391              		.loc 1 65 37 is_stmt 0 view .LVU80
 392 0000 034B     		ldr	r3, .L30
 393 0002 4FF42272 		mov	r2, #648
 394 0006 02FB0133 		mla	r3, r2, r1, r3
 395 000a C3F88002 		str	r0, [r3, #640]
  66:bsp/Src/bsp_uart.c **** }
 396              		.loc 1 66 1 view .LVU81
 397 000e 7047     		bx	lr
 398              	.L31:
 399              		.align	2
 400              	.L30:
 401 0010 00000000 		.word	.LANCHOR0
 402              		.cfi_endproc
 403              	.LFE241:
 405              		.global	uart_port
 406              		.section	.bss.uart_port,"aw",%nobits
 407              		.align	2
 408              		.set	.LANCHOR0,. + 0
 411              	uart_port:
 412 0000 00000000 		.space	1296
 412      00000000 
 412      00000000 
 412      00000000 
 412      00000000 
 413              		.text
 414              	.Letext0:
 415              		.file 2 "d:\\program files\\gnu arm embedded toolchain\\10 2021.10\\arm-none-eabi\\include\\machin
 416              		.file 3 "d:\\program files\\gnu arm embedded toolchain\\10 2021.10\\arm-none-eabi\\include\\sys\\_
 417              		.file 4 "Drivers/CMSIS/Device/ST/STM32F4xx/Include/stm32f407xx.h"
 418              		.file 5 "Drivers/STM32F4xx_HAL_Driver/Inc/stm32f4xx_hal_def.h"
 419              		.file 6 "Drivers/STM32F4xx_HAL_Driver/Inc/stm32f4xx_hal_dma.h"
 420              		.file 7 "Drivers/STM32F4xx_HAL_Driver/Inc/stm32f4xx_hal_uart.h"
 421              		.file 8 "Core/Inc/usart.h"
 422              		.file 9 "bsp/Inc/bsp_uart.h"
 423              		.file 10 "<built-in>"
ARM GAS  C:\Users\YKESH~1\AppData\Local\Temp\cczG1trH.s 			page 10

