ARM GAS  C:\Users\YKESH~1\AppData\Local\Temp\ccyoF7wB.s 			page 1


   1              		.cpu cortex-m4
   2              		.arch armv7e-m
   3              		.fpu fpv4-sp-d16
   4              		.eabi_attribute 27, 1
   5              		.eabi_attribute 28, 1
   6              		.eabi_attribute 20, 1
   7              		.eabi_attribute 21, 1
   8              		.eabi_attribute 23, 3
   9              		.eabi_attribute 24, 1
  10              		.eabi_attribute 25, 1
  11              		.eabi_attribute 26, 1
  12              		.eabi_attribute 30, 1
  13              		.eabi_attribute 34, 1
  14              		.eabi_attribute 18, 4
  15              		.file	"CO2_sensor.c"
  16              		.text
  17              	.Ltext0:
  18              		.cfi_sections	.debug_frame
  19              		.section	.text.CO2_sensor_data_handle,"ax",%progbits
  20              		.align	1
  21              		.global	CO2_sensor_data_handle
  22              		.syntax unified
  23              		.thumb
  24              		.thumb_func
  26              	CO2_sensor_data_handle:
  27              	.LVL0:
  28              	.LFB235:
  29              		.file 1 "Module/CO2_sensor/CO2_sensor.c"
   1:Module/CO2_sensor/CO2_sensor.c **** #include "CO2_sensor.h"
   2:Module/CO2_sensor/CO2_sensor.c **** #include "myfunc.h"
   3:Module/CO2_sensor/CO2_sensor.c **** #include "bsp_uart.h"
   4:Module/CO2_sensor/CO2_sensor.c **** #include "instance.h"
   5:Module/CO2_sensor/CO2_sensor.c **** 
   6:Module/CO2_sensor/CO2_sensor.c **** #include "string.h"
   7:Module/CO2_sensor/CO2_sensor.c **** 
   8:Module/CO2_sensor/CO2_sensor.c **** //量程
   9:Module/CO2_sensor/CO2_sensor.c **** //CO2: 400~60000 ppm
  10:Module/CO2_sensor/CO2_sensor.c **** //TVOC:  0~60000 ppb
  11:Module/CO2_sensor/CO2_sensor.c **** 
  12:Module/CO2_sensor/CO2_sensor.c **** //上传频率
  13:Module/CO2_sensor/CO2_sensor.c **** //1HZ
  14:Module/CO2_sensor/CO2_sensor.c **** 
  15:Module/CO2_sensor/CO2_sensor.c **** //电压
  16:Module/CO2_sensor/CO2_sensor.c **** //4-5V
  17:Module/CO2_sensor/CO2_sensor.c **** 
  18:Module/CO2_sensor/CO2_sensor.c **** //功耗
  19:Module/CO2_sensor/CO2_sensor.c **** //<60mA
  20:Module/CO2_sensor/CO2_sensor.c **** //有微弱发热现象
  21:Module/CO2_sensor/CO2_sensor.c **** 
  22:Module/CO2_sensor/CO2_sensor.c **** //例示
  23:Module/CO2_sensor/CO2_sensor.c **** //43 4F 32 3A   34 30 30   70 70 6D 2C 54 56 4F 53 3A    32   70 70 64    0D 0A 
  24:Module/CO2_sensor/CO2_sensor.c **** //    CO2:        400             ppm,TVOS:              2       ppd      行尾符
  25:Module/CO2_sensor/CO2_sensor.c **** 
  26:Module/CO2_sensor/CO2_sensor.c **** const uint8_t    head[4] = {0x43, 0x4F, 0x32, 0x3A};                                    //CO2:
  27:Module/CO2_sensor/CO2_sensor.c **** const uint8_t  middle[9] = {0x70, 0x70, 0x6D, 0x2C, 0x54, 0x56, 0x4F, 0x53, 0x3A};      //ppm,TVOS:
  28:Module/CO2_sensor/CO2_sensor.c **** const uint8_t    tail[3] = {0x70, 0x70, 0x64};                                          //ppd
  29:Module/CO2_sensor/CO2_sensor.c **** 
ARM GAS  C:\Users\YKESH~1\AppData\Local\Temp\ccyoF7wB.s 			page 2


  30:Module/CO2_sensor/CO2_sensor.c **** uint8_t command[20] = {};
  31:Module/CO2_sensor/CO2_sensor.c **** 
  32:Module/CO2_sensor/CO2_sensor.c **** CO2_data my_CO2_data;
  33:Module/CO2_sensor/CO2_sensor.c **** 
  34:Module/CO2_sensor/CO2_sensor.c **** error_handle_type CO2_sensor_data_handle(CO2_data* data_obj, uint8_t* pdata, uint16_t len)
  35:Module/CO2_sensor/CO2_sensor.c **** {
  30              		.loc 1 35 1 view -0
  31              		.cfi_startproc
  32              		@ args = 0, pretend = 0, frame = 0
  33              		@ frame_needed = 0, uses_anonymous_args = 0
  34              		.loc 1 35 1 is_stmt 0 view .LVU1
  35 0000 2DE9F041 		push	{r4, r5, r6, r7, r8, lr}
  36              	.LCFI0:
  37              		.cfi_def_cfa_offset 24
  38              		.cfi_offset 4, -24
  39              		.cfi_offset 5, -20
  40              		.cfi_offset 6, -16
  41              		.cfi_offset 7, -12
  42              		.cfi_offset 8, -8
  43              		.cfi_offset 14, -4
  44 0004 0546     		mov	r5, r0
  45 0006 0C46     		mov	r4, r1
  36:Module/CO2_sensor/CO2_sensor.c ****     uint16_t i = 0;
  46              		.loc 1 36 5 is_stmt 1 view .LVU2
  47              	.LVL1:
  37:Module/CO2_sensor/CO2_sensor.c ****     uint16_t count1 = 0; uint8_t p1 = 0;
  48              		.loc 1 37 5 view .LVU3
  49              		.loc 1 37 26 view .LVU4
  38:Module/CO2_sensor/CO2_sensor.c ****     uint16_t count2 = 0; uint8_t p2 = 0;
  50              		.loc 1 38 5 view .LVU5
  51              		.loc 1 38 26 view .LVU6
  39:Module/CO2_sensor/CO2_sensor.c **** 
  40:Module/CO2_sensor/CO2_sensor.c ****     //头部校对
  41:Module/CO2_sensor/CO2_sensor.c ****     for (uint8_t k = 0; i < len && k < 4; k++, i++){
  52              		.loc 1 41 5 view .LVU7
  53              	.LBB2:
  54              		.loc 1 41 10 view .LVU8
  55              		.loc 1 41 18 is_stmt 0 view .LVU9
  56 0008 0021     		movs	r1, #0
  57              	.LVL2:
  58              		.loc 1 41 18 view .LVU10
  59              	.LBE2:
  36:Module/CO2_sensor/CO2_sensor.c ****     uint16_t count1 = 0; uint8_t p1 = 0;
  60              		.loc 1 36 14 view .LVU11
  61 000a 0B46     		mov	r3, r1
  62              	.LVL3:
  63              	.L2:
  64              	.LBB3:
  65              		.loc 1 41 25 is_stmt 1 discriminator 1 view .LVU12
  66              		.loc 1 41 5 is_stmt 0 discriminator 1 view .LVU13
  67 000c 9342     		cmp	r3, r2
  68 000e 0BD2     		bcs	.L4
  69              		.loc 1 41 33 discriminator 3 view .LVU14
  70 0010 0329     		cmp	r1, #3
  71 0012 09D8     		bhi	.L4
  42:Module/CO2_sensor/CO2_sensor.c ****         if (pdata[i] != head[k])
  72              		.loc 1 42 9 is_stmt 1 view .LVU15
ARM GAS  C:\Users\YKESH~1\AppData\Local\Temp\ccyoF7wB.s 			page 3


  73              		.loc 1 42 18 is_stmt 0 view .LVU16
  74 0014 E65C     		ldrb	r6, [r4, r3]	@ zero_extendqisi2
  75              		.loc 1 42 29 view .LVU17
  76 0016 3A48     		ldr	r0, .L29
  77 0018 405C     		ldrb	r0, [r0, r1]	@ zero_extendqisi2
  78              		.loc 1 42 12 view .LVU18
  79 001a 8642     		cmp	r6, r0
  80 001c 68D1     		bne	.L19
  41:Module/CO2_sensor/CO2_sensor.c ****         if (pdata[i] != head[k])
  81              		.loc 1 41 43 is_stmt 1 discriminator 2 view .LVU19
  41:Module/CO2_sensor/CO2_sensor.c ****         if (pdata[i] != head[k])
  82              		.loc 1 41 44 is_stmt 0 discriminator 2 view .LVU20
  83 001e 0131     		adds	r1, r1, #1
  84              	.LVL4:
  41:Module/CO2_sensor/CO2_sensor.c ****         if (pdata[i] != head[k])
  85              		.loc 1 41 44 discriminator 2 view .LVU21
  86 0020 C9B2     		uxtb	r1, r1
  87              	.LVL5:
  41:Module/CO2_sensor/CO2_sensor.c ****         if (pdata[i] != head[k])
  88              		.loc 1 41 49 discriminator 2 view .LVU22
  89 0022 0133     		adds	r3, r3, #1
  90              	.LVL6:
  41:Module/CO2_sensor/CO2_sensor.c ****         if (pdata[i] != head[k])
  91              		.loc 1 41 49 discriminator 2 view .LVU23
  92 0024 9BB2     		uxth	r3, r3
  93              	.LVL7:
  41:Module/CO2_sensor/CO2_sensor.c ****         if (pdata[i] != head[k])
  94              		.loc 1 41 49 discriminator 2 view .LVU24
  95 0026 F1E7     		b	.L2
  96              	.L4:
  41:Module/CO2_sensor/CO2_sensor.c ****         if (pdata[i] != head[k])
  97              		.loc 1 41 49 discriminator 2 view .LVU25
  98              	.LBE3:
  43:Module/CO2_sensor/CO2_sensor.c ****             return data_err;
  44:Module/CO2_sensor/CO2_sensor.c ****     }
  45:Module/CO2_sensor/CO2_sensor.c ****     //ppm数据
  46:Module/CO2_sensor/CO2_sensor.c ****     p1 = i;
  99              		.loc 1 46 5 is_stmt 1 view .LVU26
 100              		.loc 1 46 8 is_stmt 0 view .LVU27
 101 0028 D8B2     		uxtb	r0, r3
 102              	.LVL8:
  47:Module/CO2_sensor/CO2_sensor.c ****     while (i < len && pdata[i] >= '0' && pdata[i] <= '9'){
 103              		.loc 1 47 5 is_stmt 1 view .LVU28
  37:Module/CO2_sensor/CO2_sensor.c ****     uint16_t count2 = 0; uint8_t p2 = 0;
 104              		.loc 1 37 14 is_stmt 0 view .LVU29
 105 002a 4FF0000C 		mov	ip, #0
 106              		.loc 1 47 11 view .LVU30
 107 002e 05E0     		b	.L6
 108              	.LVL9:
 109              	.L8:
  48:Module/CO2_sensor/CO2_sensor.c ****         i++;
 110              		.loc 1 48 9 is_stmt 1 view .LVU31
 111              		.loc 1 48 10 is_stmt 0 view .LVU32
 112 0030 0133     		adds	r3, r3, #1
 113              	.LVL10:
 114              		.loc 1 48 10 view .LVU33
 115 0032 9BB2     		uxth	r3, r3
ARM GAS  C:\Users\YKESH~1\AppData\Local\Temp\ccyoF7wB.s 			page 4


 116              	.LVL11:
  49:Module/CO2_sensor/CO2_sensor.c ****         count1++;
 117              		.loc 1 49 9 is_stmt 1 view .LVU34
 118              		.loc 1 49 15 is_stmt 0 view .LVU35
 119 0034 0CF1010C 		add	ip, ip, #1
 120              	.LVL12:
 121              		.loc 1 49 15 view .LVU36
 122 0038 1FFA8CFC 		uxth	ip, ip
 123              	.LVL13:
 124              	.L6:
  47:Module/CO2_sensor/CO2_sensor.c ****         i++;
 125              		.loc 1 47 11 is_stmt 1 view .LVU37
 126 003c 9342     		cmp	r3, r2
 127 003e 07D2     		bcs	.L20
  47:Module/CO2_sensor/CO2_sensor.c ****         i++;
 128              		.loc 1 47 28 is_stmt 0 discriminator 1 view .LVU38
 129 0040 E15C     		ldrb	r1, [r4, r3]	@ zero_extendqisi2
  47:Module/CO2_sensor/CO2_sensor.c ****         i++;
 130              		.loc 1 47 20 discriminator 1 view .LVU39
 131 0042 2F29     		cmp	r1, #47
 132 0044 18D9     		bls	.L21
  47:Module/CO2_sensor/CO2_sensor.c ****         i++;
 133              		.loc 1 47 39 discriminator 2 view .LVU40
 134 0046 3929     		cmp	r1, #57
 135 0048 F2D9     		bls	.L8
 136 004a 4FF0000E 		mov	lr, #0
 137 004e 01E0     		b	.L9
 138              	.L20:
  47:Module/CO2_sensor/CO2_sensor.c ****         i++;
 139              		.loc 1 47 39 discriminator 2 view .LVU41
 140 0050 4FF0000E 		mov	lr, #0
 141              	.L9:
 142              	.LVL14:
 143              	.LBB4:
  50:Module/CO2_sensor/CO2_sensor.c ****     }
  51:Module/CO2_sensor/CO2_sensor.c ****     //中部校对
  52:Module/CO2_sensor/CO2_sensor.c ****     for (uint8_t k = 0; i < len &&  k < 9; k++, i++){
 144              		.loc 1 52 25 is_stmt 1 discriminator 1 view .LVU42
 145              		.loc 1 52 5 is_stmt 0 discriminator 1 view .LVU43
 146 0054 9342     		cmp	r3, r2
 147 0056 12D2     		bcs	.L10
 148              		.loc 1 52 33 discriminator 3 view .LVU44
 149 0058 BEF1080F 		cmp	lr, #8
 150 005c 0FD8     		bhi	.L10
  53:Module/CO2_sensor/CO2_sensor.c ****         if (pdata[i] != middle[k])
 151              		.loc 1 53 9 is_stmt 1 view .LVU45
 152              		.loc 1 53 18 is_stmt 0 view .LVU46
 153 005e E65C     		ldrb	r6, [r4, r3]	@ zero_extendqisi2
 154              		.loc 1 53 31 view .LVU47
 155 0060 2849     		ldr	r1, .L29+4
 156 0062 11F80E10 		ldrb	r1, [r1, lr]	@ zero_extendqisi2
 157              		.loc 1 53 12 view .LVU48
 158 0066 8E42     		cmp	r6, r1
 159 0068 44D1     		bne	.L22
  52:Module/CO2_sensor/CO2_sensor.c ****         if (pdata[i] != middle[k])
 160              		.loc 1 52 44 is_stmt 1 discriminator 2 view .LVU49
  52:Module/CO2_sensor/CO2_sensor.c ****         if (pdata[i] != middle[k])
ARM GAS  C:\Users\YKESH~1\AppData\Local\Temp\ccyoF7wB.s 			page 5


 161              		.loc 1 52 45 is_stmt 0 discriminator 2 view .LVU50
 162 006a 0EF1010E 		add	lr, lr, #1
 163              	.LVL15:
  52:Module/CO2_sensor/CO2_sensor.c ****         if (pdata[i] != middle[k])
 164              		.loc 1 52 45 discriminator 2 view .LVU51
 165 006e 5FFA8EFE 		uxtb	lr, lr
 166              	.LVL16:
  52:Module/CO2_sensor/CO2_sensor.c ****         if (pdata[i] != middle[k])
 167              		.loc 1 52 50 discriminator 2 view .LVU52
 168 0072 0133     		adds	r3, r3, #1
 169              	.LVL17:
  52:Module/CO2_sensor/CO2_sensor.c ****         if (pdata[i] != middle[k])
 170              		.loc 1 52 50 discriminator 2 view .LVU53
 171 0074 9BB2     		uxth	r3, r3
 172              	.LVL18:
  52:Module/CO2_sensor/CO2_sensor.c ****         if (pdata[i] != middle[k])
 173              		.loc 1 52 50 discriminator 2 view .LVU54
 174 0076 EDE7     		b	.L9
 175              	.LVL19:
 176              	.L21:
  52:Module/CO2_sensor/CO2_sensor.c ****         if (pdata[i] != middle[k])
 177              		.loc 1 52 50 discriminator 2 view .LVU55
 178              	.LBE4:
 179 0078 4FF0000E 		mov	lr, #0
 180 007c EAE7     		b	.L9
 181              	.LVL20:
 182              	.L10:
  54:Module/CO2_sensor/CO2_sensor.c ****             return data_err;
  55:Module/CO2_sensor/CO2_sensor.c ****     }
  56:Module/CO2_sensor/CO2_sensor.c ****     //ppd数据
  57:Module/CO2_sensor/CO2_sensor.c ****     p2 = i;
 183              		.loc 1 57 5 is_stmt 1 view .LVU56
 184              		.loc 1 57 8 is_stmt 0 view .LVU57
 185 007e DFB2     		uxtb	r7, r3
 186              	.LVL21:
  58:Module/CO2_sensor/CO2_sensor.c ****     while (i < len && pdata[i] >= '0' && pdata[i] <= '9'){
 187              		.loc 1 58 5 is_stmt 1 view .LVU58
  38:Module/CO2_sensor/CO2_sensor.c **** 
 188              		.loc 1 38 14 is_stmt 0 view .LVU59
 189 0080 0026     		movs	r6, #0
 190              	.LVL22:
 191              	.L12:
 192              		.loc 1 58 11 is_stmt 1 view .LVU60
 193 0082 9342     		cmp	r3, r2
 194 0084 0BD2     		bcs	.L23
 195              		.loc 1 58 28 is_stmt 0 discriminator 1 view .LVU61
 196 0086 E15C     		ldrb	r1, [r4, r3]	@ zero_extendqisi2
 197              		.loc 1 58 20 discriminator 1 view .LVU62
 198 0088 2F29     		cmp	r1, #47
 199 008a 1AD9     		bls	.L24
 200              		.loc 1 58 39 discriminator 2 view .LVU63
 201 008c 3929     		cmp	r1, #57
 202 008e 04D8     		bhi	.L28
  59:Module/CO2_sensor/CO2_sensor.c ****         i++;
 203              		.loc 1 59 9 is_stmt 1 view .LVU64
 204              		.loc 1 59 10 is_stmt 0 view .LVU65
 205 0090 0133     		adds	r3, r3, #1
ARM GAS  C:\Users\YKESH~1\AppData\Local\Temp\ccyoF7wB.s 			page 6


 206              	.LVL23:
 207              		.loc 1 59 10 view .LVU66
 208 0092 9BB2     		uxth	r3, r3
 209              	.LVL24:
  60:Module/CO2_sensor/CO2_sensor.c ****         count2++;
 210              		.loc 1 60 9 is_stmt 1 view .LVU67
 211              		.loc 1 60 15 is_stmt 0 view .LVU68
 212 0094 0136     		adds	r6, r6, #1
 213              	.LVL25:
 214              		.loc 1 60 15 view .LVU69
 215 0096 B6B2     		uxth	r6, r6
 216              	.LVL26:
 217              		.loc 1 60 15 view .LVU70
 218 0098 F3E7     		b	.L12
 219              	.L28:
 220              		.loc 1 60 15 view .LVU71
 221 009a 0021     		movs	r1, #0
 222 009c 00E0     		b	.L15
 223              	.L23:
 224              		.loc 1 60 15 view .LVU72
 225 009e 0021     		movs	r1, #0
 226              	.LVL27:
 227              	.L15:
 228              	.LBB5:
  61:Module/CO2_sensor/CO2_sensor.c ****     }
  62:Module/CO2_sensor/CO2_sensor.c ****     //尾部校对
  63:Module/CO2_sensor/CO2_sensor.c ****     for (uint8_t k = 0; i < len && k < 3; k++, i++){
 229              		.loc 1 63 25 is_stmt 1 discriminator 1 view .LVU73
 230              		.loc 1 63 5 is_stmt 0 discriminator 1 view .LVU74
 231 00a0 9342     		cmp	r3, r2
 232 00a2 10D2     		bcs	.L16
 233              		.loc 1 63 33 discriminator 3 view .LVU75
 234 00a4 0229     		cmp	r1, #2
 235 00a6 0ED8     		bhi	.L16
  64:Module/CO2_sensor/CO2_sensor.c ****         if (pdata[i] != tail[k])
 236              		.loc 1 64 9 is_stmt 1 view .LVU76
 237              		.loc 1 64 18 is_stmt 0 view .LVU77
 238 00a8 14F80380 		ldrb	r8, [r4, r3]	@ zero_extendqisi2
 239              		.loc 1 64 29 view .LVU78
 240 00ac DFF858E0 		ldr	lr, .L29+8
 241 00b0 1EF801E0 		ldrb	lr, [lr, r1]	@ zero_extendqisi2
 242              		.loc 1 64 12 view .LVU79
 243 00b4 F045     		cmp	r8, lr
 244 00b6 1FD1     		bne	.L25
  63:Module/CO2_sensor/CO2_sensor.c ****         if (pdata[i] != tail[k])
 245              		.loc 1 63 43 is_stmt 1 discriminator 2 view .LVU80
  63:Module/CO2_sensor/CO2_sensor.c ****         if (pdata[i] != tail[k])
 246              		.loc 1 63 44 is_stmt 0 discriminator 2 view .LVU81
 247 00b8 0131     		adds	r1, r1, #1
 248              	.LVL28:
  63:Module/CO2_sensor/CO2_sensor.c ****         if (pdata[i] != tail[k])
 249              		.loc 1 63 44 discriminator 2 view .LVU82
 250 00ba C9B2     		uxtb	r1, r1
 251              	.LVL29:
  63:Module/CO2_sensor/CO2_sensor.c ****         if (pdata[i] != tail[k])
 252              		.loc 1 63 49 discriminator 2 view .LVU83
 253 00bc 0133     		adds	r3, r3, #1
ARM GAS  C:\Users\YKESH~1\AppData\Local\Temp\ccyoF7wB.s 			page 7


 254              	.LVL30:
  63:Module/CO2_sensor/CO2_sensor.c ****         if (pdata[i] != tail[k])
 255              		.loc 1 63 49 discriminator 2 view .LVU84
 256 00be 9BB2     		uxth	r3, r3
 257              	.LVL31:
  63:Module/CO2_sensor/CO2_sensor.c ****         if (pdata[i] != tail[k])
 258              		.loc 1 63 49 discriminator 2 view .LVU85
 259 00c0 EEE7     		b	.L15
 260              	.LVL32:
 261              	.L24:
  63:Module/CO2_sensor/CO2_sensor.c ****         if (pdata[i] != tail[k])
 262              		.loc 1 63 49 discriminator 2 view .LVU86
 263              	.LBE5:
 264 00c2 0021     		movs	r1, #0
 265 00c4 ECE7     		b	.L15
 266              	.LVL33:
 267              	.L16:
  65:Module/CO2_sensor/CO2_sensor.c ****             return data_err;
  66:Module/CO2_sensor/CO2_sensor.c ****     }
  67:Module/CO2_sensor/CO2_sensor.c ****     //数据长度校对
  68:Module/CO2_sensor/CO2_sensor.c ****     if (i == len && pdata[i-1] != 'd'){
 268              		.loc 1 68 5 is_stmt 1 view .LVU87
 269              		.loc 1 68 8 is_stmt 0 view .LVU88
 270 00c6 9342     		cmp	r3, r2
 271 00c8 04D1     		bne	.L18
 272              		.loc 1 68 26 discriminator 1 view .LVU89
 273 00ca 2344     		add	r3, r3, r4
 274              	.LVL34:
 275              		.loc 1 68 26 discriminator 1 view .LVU90
 276 00cc 13F8013C 		ldrb	r3, [r3, #-1]	@ zero_extendqisi2
 277              		.loc 1 68 18 discriminator 1 view .LVU91
 278 00d0 642B     		cmp	r3, #100
 279 00d2 13D1     		bne	.L26
 280              	.L18:
  69:Module/CO2_sensor/CO2_sensor.c ****         return data_err;
  70:Module/CO2_sensor/CO2_sensor.c ****     }
  71:Module/CO2_sensor/CO2_sensor.c **** 
  72:Module/CO2_sensor/CO2_sensor.c ****     data_obj->CO2_ppm  = Str_to_uint(pdata + p1, count1);
 281              		.loc 1 72 5 is_stmt 1 view .LVU92
 282              		.loc 1 72 26 is_stmt 0 view .LVU93
 283 00d4 5FFA8CF1 		uxtb	r1, ip
 284              	.LVL35:
 285              		.loc 1 72 26 view .LVU94
 286 00d8 2044     		add	r0, r0, r4
 287              	.LVL36:
 288              		.loc 1 72 26 view .LVU95
 289 00da FFF7FEFF 		bl	Str_to_uint
 290              	.LVL37:
 291              		.loc 1 72 24 view .LVU96
 292 00de 2880     		strh	r0, [r5]	@ unaligned
  73:Module/CO2_sensor/CO2_sensor.c ****     data_obj->TVOC_ppd = Str_to_uint(pdata + p2, count2);
 293              		.loc 1 73 5 is_stmt 1 view .LVU97
 294              		.loc 1 73 26 is_stmt 0 view .LVU98
 295 00e0 F1B2     		uxtb	r1, r6
 296 00e2 E019     		adds	r0, r4, r7
 297 00e4 FFF7FEFF 		bl	Str_to_uint
 298              	.LVL38:
ARM GAS  C:\Users\YKESH~1\AppData\Local\Temp\ccyoF7wB.s 			page 8


 299              		.loc 1 73 24 view .LVU99
 300 00e8 6880     		strh	r0, [r5, #2]	@ unaligned
  74:Module/CO2_sensor/CO2_sensor.c **** 
  75:Module/CO2_sensor/CO2_sensor.c ****     return normal;
 301              		.loc 1 75 5 is_stmt 1 view .LVU100
 302              		.loc 1 75 12 is_stmt 0 view .LVU101
 303 00ea 0020     		movs	r0, #0
 304              	.LVL39:
 305              	.L3:
  76:Module/CO2_sensor/CO2_sensor.c **** }
 306              		.loc 1 76 1 view .LVU102
 307 00ec BDE8F081 		pop	{r4, r5, r6, r7, r8, pc}
 308              	.LVL40:
 309              	.L19:
 310              	.LBB6:
  43:Module/CO2_sensor/CO2_sensor.c ****     }
 311              		.loc 1 43 20 view .LVU103
 312 00f0 0120     		movs	r0, #1
 313 00f2 FBE7     		b	.L3
 314              	.LVL41:
 315              	.L22:
  43:Module/CO2_sensor/CO2_sensor.c ****     }
 316              		.loc 1 43 20 view .LVU104
 317              	.LBE6:
 318              	.LBB7:
  54:Module/CO2_sensor/CO2_sensor.c ****     }
 319              		.loc 1 54 20 view .LVU105
 320 00f4 0120     		movs	r0, #1
 321              	.LVL42:
  54:Module/CO2_sensor/CO2_sensor.c ****     }
 322              		.loc 1 54 20 view .LVU106
 323 00f6 F9E7     		b	.L3
 324              	.LVL43:
 325              	.L25:
  54:Module/CO2_sensor/CO2_sensor.c ****     }
 326              		.loc 1 54 20 view .LVU107
 327              	.LBE7:
 328              	.LBB8:
  65:Module/CO2_sensor/CO2_sensor.c ****     }
 329              		.loc 1 65 20 view .LVU108
 330 00f8 0120     		movs	r0, #1
 331              	.LVL44:
  65:Module/CO2_sensor/CO2_sensor.c ****     }
 332              		.loc 1 65 20 view .LVU109
 333 00fa F7E7     		b	.L3
 334              	.LVL45:
 335              	.L26:
  65:Module/CO2_sensor/CO2_sensor.c ****     }
 336              		.loc 1 65 20 view .LVU110
 337              	.LBE8:
  69:Module/CO2_sensor/CO2_sensor.c ****     }
 338              		.loc 1 69 16 view .LVU111
 339 00fc 0120     		movs	r0, #1
 340              	.LVL46:
  69:Module/CO2_sensor/CO2_sensor.c ****     }
 341              		.loc 1 69 16 view .LVU112
 342 00fe F5E7     		b	.L3
ARM GAS  C:\Users\YKESH~1\AppData\Local\Temp\ccyoF7wB.s 			page 9


 343              	.L30:
 344              		.align	2
 345              	.L29:
 346 0100 00000000 		.word	.LANCHOR0
 347 0104 00000000 		.word	.LANCHOR1
 348 0108 00000000 		.word	.LANCHOR2
 349              		.cfi_endproc
 350              	.LFE235:
 352              		.section	.rodata.CO2_callback.str1.4,"aMS",%progbits,1
 353              		.align	2
 354              	.LC0:
 355 0000 4F4B00   		.ascii	"OK\000"
 356              		.section	.text.CO2_callback,"ax",%progbits
 357              		.align	1
 358              		.global	CO2_callback
 359              		.syntax unified
 360              		.thumb
 361              		.thumb_func
 363              	CO2_callback:
 364              	.LVL47:
 365              	.LFB236:
  77:Module/CO2_sensor/CO2_sensor.c **** 
  78:Module/CO2_sensor/CO2_sensor.c **** void CO2_callback(UART_HandleTypeDef* huart, uint8_t* pdata, uint16_t len)
  79:Module/CO2_sensor/CO2_sensor.c **** {
 366              		.loc 1 79 1 is_stmt 1 view -0
 367              		.cfi_startproc
 368              		@ args = 0, pretend = 0, frame = 0
 369              		@ frame_needed = 0, uses_anonymous_args = 0
 370              		.loc 1 79 1 is_stmt 0 view .LVU114
 371 0000 08B5     		push	{r3, lr}
 372              	.LCFI1:
 373              		.cfi_def_cfa_offset 8
 374              		.cfi_offset 3, -8
 375              		.cfi_offset 14, -4
 376 0002 0846     		mov	r0, r1
 377              	.LVL48:
  80:Module/CO2_sensor/CO2_sensor.c ****     if (my_CO2_data.step){
 378              		.loc 1 80 5 is_stmt 1 view .LVU115
 379              		.loc 1 80 20 is_stmt 0 view .LVU116
 380 0004 0E4B     		ldr	r3, .L36
 381 0006 1B79     		ldrb	r3, [r3, #4]	@ zero_extendqisi2
 382              		.loc 1 80 8 view .LVU117
 383 0008 A3B1     		cbz	r3, .L32
  81:Module/CO2_sensor/CO2_sensor.c ****         if (memcmp(pdata, "OK", 2) == 0){
 384              		.loc 1 81 9 is_stmt 1 view .LVU118
 385              		.loc 1 81 13 is_stmt 0 view .LVU119
 386 000a 0222     		movs	r2, #2
 387              	.LVL49:
 388              		.loc 1 81 13 view .LVU120
 389 000c 0D49     		ldr	r1, .L36+4
 390              	.LVL50:
 391              		.loc 1 81 13 view .LVU121
 392 000e FFF7FEFF 		bl	memcmp
 393              	.LVL51:
 394              		.loc 1 81 12 view .LVU122
 395 0012 28B9     		cbnz	r0, .L33
  82:Module/CO2_sensor/CO2_sensor.c ****             database.CO2_sta = normal;
ARM GAS  C:\Users\YKESH~1\AppData\Local\Temp\ccyoF7wB.s 			page 10


 396              		.loc 1 82 13 is_stmt 1 view .LVU123
 397              		.loc 1 82 30 is_stmt 0 view .LVU124
 398 0014 0023     		movs	r3, #0
 399 0016 0C4A     		ldr	r2, .L36+8
 400 0018 9373     		strb	r3, [r2, #14]
  83:Module/CO2_sensor/CO2_sensor.c ****             my_CO2_data.step = data_recv;
 401              		.loc 1 83 13 is_stmt 1 view .LVU125
 402              		.loc 1 83 30 is_stmt 0 view .LVU126
 403 001a 094A     		ldr	r2, .L36
 404 001c 1371     		strb	r3, [r2, #4]
 405              	.L31:
  84:Module/CO2_sensor/CO2_sensor.c ****         }
  85:Module/CO2_sensor/CO2_sensor.c ****         else {
  86:Module/CO2_sensor/CO2_sensor.c ****             database.CO2_sta = module_err;
  87:Module/CO2_sensor/CO2_sensor.c ****             BSP_UART_send(CO2_PORT, command, my_CO2_data.cmd_len);
  88:Module/CO2_sensor/CO2_sensor.c ****         }
  89:Module/CO2_sensor/CO2_sensor.c ****     }
  90:Module/CO2_sensor/CO2_sensor.c ****     else {
  91:Module/CO2_sensor/CO2_sensor.c ****         database.CO2_sta = CO2_sensor_data_handle(&my_CO2_data, pdata, len);
  92:Module/CO2_sensor/CO2_sensor.c ****     }
  93:Module/CO2_sensor/CO2_sensor.c **** }
 406              		.loc 1 93 1 view .LVU127
 407 001e 08BD     		pop	{r3, pc}
 408              	.L33:
  86:Module/CO2_sensor/CO2_sensor.c ****             BSP_UART_send(CO2_PORT, command, my_CO2_data.cmd_len);
 409              		.loc 1 86 13 is_stmt 1 view .LVU128
  86:Module/CO2_sensor/CO2_sensor.c ****             BSP_UART_send(CO2_PORT, command, my_CO2_data.cmd_len);
 410              		.loc 1 86 30 is_stmt 0 view .LVU129
 411 0020 094B     		ldr	r3, .L36+8
 412 0022 0322     		movs	r2, #3
 413 0024 9A73     		strb	r2, [r3, #14]
  87:Module/CO2_sensor/CO2_sensor.c ****         }
 414              		.loc 1 87 13 is_stmt 1 view .LVU130
 415 0026 064B     		ldr	r3, .L36
 416 0028 5A79     		ldrb	r2, [r3, #5]	@ zero_extendqisi2
 417 002a 0849     		ldr	r1, .L36+12
 418 002c 0120     		movs	r0, #1
 419 002e FFF7FEFF 		bl	BSP_UART_send
 420              	.LVL52:
 421 0032 F4E7     		b	.L31
 422              	.LVL53:
 423              	.L32:
  91:Module/CO2_sensor/CO2_sensor.c ****     }
 424              		.loc 1 91 9 view .LVU131
  91:Module/CO2_sensor/CO2_sensor.c ****     }
 425              		.loc 1 91 28 is_stmt 0 view .LVU132
 426 0034 0248     		ldr	r0, .L36
 427              	.LVL54:
  91:Module/CO2_sensor/CO2_sensor.c ****     }
 428              		.loc 1 91 28 view .LVU133
 429 0036 FFF7FEFF 		bl	CO2_sensor_data_handle
 430              	.LVL55:
  91:Module/CO2_sensor/CO2_sensor.c ****     }
 431              		.loc 1 91 26 view .LVU134
 432 003a 034B     		ldr	r3, .L36+8
 433 003c 9873     		strb	r0, [r3, #14]
 434              		.loc 1 93 1 view .LVU135
ARM GAS  C:\Users\YKESH~1\AppData\Local\Temp\ccyoF7wB.s 			page 11


 435 003e EEE7     		b	.L31
 436              	.L37:
 437              		.align	2
 438              	.L36:
 439 0040 00000000 		.word	.LANCHOR3
 440 0044 00000000 		.word	.LC0
 441 0048 00000000 		.word	database
 442 004c 00000000 		.word	.LANCHOR4
 443              		.cfi_endproc
 444              	.LFE236:
 446              		.section	.rodata.CO2_set_peroid.str1.4,"aMS",%progbits,1
 447              		.align	2
 448              	.LC1:
 449 0000 41542B50 		.ascii	"AT+PRATE=\000"
 449      52415445 
 449      3D00
 450 000a 0000     		.align	2
 451              	.LC2:
 452 000c 0D0A00   		.ascii	"\015\012\000"
 453              		.section	.text.CO2_set_peroid,"ax",%progbits
 454              		.align	1
 455              		.global	CO2_set_peroid
 456              		.syntax unified
 457              		.thumb
 458              		.thumb_func
 460              	CO2_set_peroid:
 461              	.LVL56:
 462              	.LFB237:
  94:Module/CO2_sensor/CO2_sensor.c **** 
  95:Module/CO2_sensor/CO2_sensor.c **** void CO2_set_peroid(uint16_t ms)
  96:Module/CO2_sensor/CO2_sensor.c **** {
 463              		.loc 1 96 1 is_stmt 1 view -0
 464              		.cfi_startproc
 465              		@ args = 0, pretend = 0, frame = 0
 466              		@ frame_needed = 0, uses_anonymous_args = 0
 467              		.loc 1 96 1 is_stmt 0 view .LVU137
 468 0000 10B5     		push	{r4, lr}
 469              	.LCFI2:
 470              		.cfi_def_cfa_offset 8
 471              		.cfi_offset 4, -8
 472              		.cfi_offset 14, -4
 473 0002 8446     		mov	ip, r0
  97:Module/CO2_sensor/CO2_sensor.c ****     memcpy(command, "AT+PRATE=", 9);
 474              		.loc 1 97 5 is_stmt 1 view .LVU138
 475 0004 0D4C     		ldr	r4, .L40
 476 0006 0E4A     		ldr	r2, .L40+4
 477 0008 2346     		mov	r3, r4
 478 000a 07CA     		ldm	r2, {r0, r1, r2}
 479              	.LVL57:
 480              		.loc 1 97 5 is_stmt 0 view .LVU139
 481 000c 03C3     		stmia	r3!, {r0, r1}
 482 000e 1A70     		strb	r2, [r3]
  98:Module/CO2_sensor/CO2_sensor.c ****     uint8_t len = Uint_to_Str((uint32_t)ms, command + 9);
 483              		.loc 1 98 5 is_stmt 1 view .LVU140
 484              		.loc 1 98 19 is_stmt 0 view .LVU141
 485 0010 04F10901 		add	r1, r4, #9
 486 0014 6046     		mov	r0, ip
ARM GAS  C:\Users\YKESH~1\AppData\Local\Temp\ccyoF7wB.s 			page 12


 487 0016 FFF7FEFF 		bl	Uint_to_Str
 488              	.LVL58:
 489 001a 0246     		mov	r2, r0
 490              	.LVL59:
  99:Module/CO2_sensor/CO2_sensor.c ****     memcpy(command + 9 + len, "\r\n", 2);
 491              		.loc 1 99 5 is_stmt 1 view .LVU142
 492              		.loc 1 99 24 is_stmt 0 view .LVU143
 493 001c 00F10903 		add	r3, r0, #9
 494              		.loc 1 99 5 view .LVU144
 495 0020 0849     		ldr	r1, .L40+8
 496 0022 0988     		ldrh	r1, [r1]	@ unaligned
 497 0024 E152     		strh	r1, [r4, r3]	@ unaligned
 100:Module/CO2_sensor/CO2_sensor.c ****     my_CO2_data.step = comd_tran;
 498              		.loc 1 100 5 is_stmt 1 view .LVU145
 499              		.loc 1 100 22 is_stmt 0 view .LVU146
 500 0026 084B     		ldr	r3, .L40+12
 501 0028 0120     		movs	r0, #1
 502              	.LVL60:
 503              		.loc 1 100 22 view .LVU147
 504 002a 1871     		strb	r0, [r3, #4]
 101:Module/CO2_sensor/CO2_sensor.c ****     my_CO2_data.cmd_len = len + 11;
 505              		.loc 1 101 5 is_stmt 1 view .LVU148
 506              		.loc 1 101 31 is_stmt 0 view .LVU149
 507 002c 0B32     		adds	r2, r2, #11
 508 002e D2B2     		uxtb	r2, r2
 509              		.loc 1 101 25 view .LVU150
 510 0030 5A71     		strb	r2, [r3, #5]
 102:Module/CO2_sensor/CO2_sensor.c ****     BSP_UART_send(CO2_PORT, command, my_CO2_data.cmd_len);
 511              		.loc 1 102 5 is_stmt 1 view .LVU151
 512 0032 2146     		mov	r1, r4
 513 0034 FFF7FEFF 		bl	BSP_UART_send
 514              	.LVL61:
 103:Module/CO2_sensor/CO2_sensor.c **** }
 515              		.loc 1 103 1 is_stmt 0 view .LVU152
 516 0038 10BD     		pop	{r4, pc}
 517              	.L41:
 518 003a 00BF     		.align	2
 519              	.L40:
 520 003c 00000000 		.word	.LANCHOR4
 521 0040 00000000 		.word	.LC1
 522 0044 0C000000 		.word	.LC2
 523 0048 00000000 		.word	.LANCHOR3
 524              		.cfi_endproc
 525              	.LFE237:
 527              		.section	.text.CO2_sensor_Init,"ax",%progbits
 528              		.align	1
 529              		.global	CO2_sensor_Init
 530              		.syntax unified
 531              		.thumb
 532              		.thumb_func
 534              	CO2_sensor_Init:
 535              	.LFB238:
 104:Module/CO2_sensor/CO2_sensor.c **** 
 105:Module/CO2_sensor/CO2_sensor.c **** void CO2_sensor_Init(void)
 106:Module/CO2_sensor/CO2_sensor.c **** {
 536              		.loc 1 106 1 is_stmt 1 view -0
 537              		.cfi_startproc
ARM GAS  C:\Users\YKESH~1\AppData\Local\Temp\ccyoF7wB.s 			page 13


 538              		@ args = 0, pretend = 0, frame = 0
 539              		@ frame_needed = 0, uses_anonymous_args = 0
 540 0000 08B5     		push	{r3, lr}
 541              	.LCFI3:
 542              		.cfi_def_cfa_offset 8
 543              		.cfi_offset 3, -8
 544              		.cfi_offset 14, -4
 107:Module/CO2_sensor/CO2_sensor.c ****     database.CO2_data_p = &my_CO2_data;
 545              		.loc 1 107 5 view .LVU154
 546              		.loc 1 107 25 is_stmt 0 view .LVU155
 547 0002 054B     		ldr	r3, .L44
 548 0004 054A     		ldr	r2, .L44+4
 549 0006 9A60     		str	r2, [r3, #8]
 108:Module/CO2_sensor/CO2_sensor.c ****     database.CO2_sta = data_recv;
 550              		.loc 1 108 5 is_stmt 1 view .LVU156
 551              		.loc 1 108 22 is_stmt 0 view .LVU157
 552 0008 0022     		movs	r2, #0
 553 000a 9A73     		strb	r2, [r3, #14]
 109:Module/CO2_sensor/CO2_sensor.c ****     BSP_UART_registerfunc(CO2_callback ,CO2_PORT);
 554              		.loc 1 109 5 is_stmt 1 view .LVU158
 555 000c 0121     		movs	r1, #1
 556 000e 0448     		ldr	r0, .L44+8
 557 0010 FFF7FEFF 		bl	BSP_UART_registerfunc
 558              	.LVL62:
 110:Module/CO2_sensor/CO2_sensor.c **** }...
 559              		.loc 1 110 1 is_stmt 0 view .LVU159
 560 0014 08BD     		pop	{r3, pc}
 561              	.L45:
 562 0016 00BF     		.align	2
 563              	.L44:
 564 0018 00000000 		.word	database
 565 001c 00000000 		.word	.LANCHOR3
 566 0020 00000000 		.word	CO2_callback
 567              		.cfi_endproc
 568              	.LFE238:
 570              		.global	my_CO2_data
 571              		.global	command
 572              		.global	tail
 573              		.global	middle
 574              		.global	head
 575              		.section	.bss.command,"aw",%nobits
 576              		.align	2
 577              		.set	.LANCHOR4,. + 0
 580              	command:
 581 0000 00000000 		.space	20
 581      00000000 
 581      00000000 
 581      00000000 
 581      00000000 
 582              		.section	.bss.my_CO2_data,"aw",%nobits
 583              		.align	2
 584              		.set	.LANCHOR3,. + 0
 587              	my_CO2_data:
 588 0000 00000000 		.space	6
 588      0000
 589              		.section	.rodata.head,"a"
 590              		.align	2
ARM GAS  C:\Users\YKESH~1\AppData\Local\Temp\ccyoF7wB.s 			page 14


 591              		.set	.LANCHOR0,. + 0
 594              	head:
 595 0000 434F323A 		.ascii	"CO2:"
 596              		.section	.rodata.middle,"a"
 597              		.align	2
 598              		.set	.LANCHOR1,. + 0
 601              	middle:
 602 0000 70706D2C 		.ascii	"ppm,TVOS:"
 602      54564F53 
 602      3A
 603              		.section	.rodata.tail,"a"
 604              		.align	2
 605              		.set	.LANCHOR2,. + 0
 608              	tail:
 609 0000 707064   		.ascii	"ppd"
 610              		.text
 611              	.Letext0:
 612              		.file 2 "d:\\program files\\gnu arm embedded toolchain\\10 2021.10\\arm-none-eabi\\include\\machin
 613              		.file 3 "d:\\program files\\gnu arm embedded toolchain\\10 2021.10\\arm-none-eabi\\include\\sys\\_
 614              		.file 4 "backup/Inc/error_handle.h"
 615              		.file 5 "Module/CO2_sensor/CO2_sensor.h"
 616              		.file 6 "Drivers/CMSIS/Device/ST/STM32F4xx/Include/stm32f407xx.h"
 617              		.file 7 "Drivers/STM32F4xx_HAL_Driver/Inc/stm32f4xx_hal_def.h"
 618              		.file 8 "Drivers/STM32F4xx_HAL_Driver/Inc/stm32f4xx_hal_dma.h"
 619              		.file 9 "Drivers/STM32F4xx_HAL_Driver/Inc/stm32f4xx_hal_uart.h"
 620              		.file 10 "Module/SHT_sensor/SHT_sensor.h"
 621              		.file 11 "Module/UV_sensor/UV_sensor.h"
 622              		.file 12 "backup/Inc/instance.h"
 623              		.file 13 "bsp/Inc/bsp_uart.h"
 624              		.file 14 "backup/Inc/myfunc.h"
 625              		.file 15 "d:\\program files\\gnu arm embedded toolchain\\10 2021.10\\arm-none-eabi\\include\\strin
ARM GAS  C:\Users\YKESH~1\AppData\Local\Temp\ccyoF7wB.s 			page 15

