ARM GAS  C:\Users\YKESH~1\AppData\Local\Temp\ccsdeDr2.s 			page 1


   1              		.cpu cortex-m4
   2              		.arch armv7e-m
   3              		.fpu fpv4-sp-d16
   4              		.eabi_attribute 27, 1
   5              		.eabi_attribute 28, 1
   6              		.eabi_attribute 20, 1
   7              		.eabi_attribute 21, 1
   8              		.eabi_attribute 23, 3
   9              		.eabi_attribute 24, 1
  10              		.eabi_attribute 25, 1
  11              		.eabi_attribute 26, 1
  12              		.eabi_attribute 30, 1
  13              		.eabi_attribute 34, 1
  14              		.eabi_attribute 18, 4
  15              		.file	"eeprom.c"
  16              		.text
  17              	.Ltext0:
  18              		.cfi_sections	.debug_frame
  19              		.section	.text.EEPROM_Write_Byte,"ax",%progbits
  20              		.align	1
  21              		.global	EEPROM_Write_Byte
  22              		.syntax unified
  23              		.thumb
  24              		.thumb_func
  26              	EEPROM_Write_Byte:
  27              	.LVL0:
  28              	.LFB235:
  29              		.file 1 "Module/EEPROM/eeprom.c"
   1:Module/EEPROM/eeprom.c **** #include "eeprom.h"
   2:Module/EEPROM/eeprom.c **** #include "string.h"
   3:Module/EEPROM/eeprom.c **** 
   4:Module/EEPROM/eeprom.c **** uint8_t EEP_txbuffer[10];
   5:Module/EEPROM/eeprom.c **** uint8_t EEP_rxbuffer[10];
   6:Module/EEPROM/eeprom.c **** 
   7:Module/EEPROM/eeprom.c **** error_handle_type EEPROM_Write_Byte(software_IIC_Port* port, uint16_t addr, uint8_t data)
   8:Module/EEPROM/eeprom.c **** {
  30              		.loc 1 8 1 view -0
  31              		.cfi_startproc
  32              		@ args = 0, pretend = 0, frame = 0
  33              		@ frame_needed = 0, uses_anonymous_args = 0
  34              		.loc 1 8 1 is_stmt 0 view .LVU1
  35 0000 08B5     		push	{r3, lr}
  36              	.LCFI0:
  37              		.cfi_def_cfa_offset 8
  38              		.cfi_offset 3, -8
  39              		.cfi_offset 14, -4
  40 0002 0B46     		mov	r3, r1
   9:Module/EEPROM/eeprom.c ****     EEP_txbuffer[0] = addr >> 8;
  41              		.loc 1 9 5 is_stmt 1 view .LVU2
  42              		.loc 1 9 21 is_stmt 0 view .LVU3
  43 0004 0849     		ldr	r1, .L5
  44              	.LVL1:
  45              		.loc 1 9 21 view .LVU4
  46 0006 180A     		lsrs	r0, r3, #8
  47              	.LVL2:
  48              		.loc 1 9 21 view .LVU5
  49 0008 0870     		strb	r0, [r1]
ARM GAS  C:\Users\YKESH~1\AppData\Local\Temp\ccsdeDr2.s 			page 2


  10:Module/EEPROM/eeprom.c ****     EEP_txbuffer[1] = addr | 0xFF00;
  50              		.loc 1 10 5 is_stmt 1 view .LVU6
  51              		.loc 1 10 21 is_stmt 0 view .LVU7
  52 000a 4B70     		strb	r3, [r1, #1]
  11:Module/EEPROM/eeprom.c ****     EEP_txbuffer[2] = data;
  53              		.loc 1 11 5 is_stmt 1 view .LVU8
  54              		.loc 1 11 21 is_stmt 0 view .LVU9
  55 000c 8A70     		strb	r2, [r1, #2]
  12:Module/EEPROM/eeprom.c ****     Master_Transmit(EEPROM_PORT_INDEX, EEP_txbuffer, 3);
  56              		.loc 1 12 5 is_stmt 1 view .LVU10
  57 000e 0322     		movs	r2, #3
  58              	.LVL3:
  59              		.loc 1 12 5 is_stmt 0 view .LVU11
  60 0010 0120     		movs	r0, #1
  61 0012 FFF7FEFF 		bl	Master_Transmit
  62              	.LVL4:
  13:Module/EEPROM/eeprom.c ****     if (!BSP_IIC_sta(EEPROM_PORT_INDEX))return trans_err;
  63              		.loc 1 13 5 is_stmt 1 view .LVU12
  64              		.loc 1 13 10 is_stmt 0 view .LVU13
  65 0016 0120     		movs	r0, #1
  66 0018 FFF7FEFF 		bl	BSP_IIC_sta
  67              	.LVL5:
  68              		.loc 1 13 8 view .LVU14
  69 001c 08B1     		cbz	r0, .L3
  14:Module/EEPROM/eeprom.c ****     return normal;
  70              		.loc 1 14 12 view .LVU15
  71 001e 0020     		movs	r0, #0
  72              	.L2:
  15:Module/EEPROM/eeprom.c **** }
  73              		.loc 1 15 1 view .LVU16
  74 0020 08BD     		pop	{r3, pc}
  75              	.L3:
  13:Module/EEPROM/eeprom.c ****     if (!BSP_IIC_sta(EEPROM_PORT_INDEX))return trans_err;
  76              		.loc 1 13 48 view .LVU17
  77 0022 0220     		movs	r0, #2
  78 0024 FCE7     		b	.L2
  79              	.L6:
  80 0026 00BF     		.align	2
  81              	.L5:
  82 0028 00000000 		.word	.LANCHOR0
  83              		.cfi_endproc
  84              	.LFE235:
  86              		.section	.text.EEPROM_Read_Byte,"ax",%progbits
  87              		.align	1
  88              		.global	EEPROM_Read_Byte
  89              		.syntax unified
  90              		.thumb
  91              		.thumb_func
  93              	EEPROM_Read_Byte:
  94              	.LVL6:
  95              	.LFB236:
  16:Module/EEPROM/eeprom.c **** 
  17:Module/EEPROM/eeprom.c **** error_handle_type EEPROM_Read_Byte(software_IIC_Port* port, uint16_t addr, uint8_t* rxbuf)
  18:Module/EEPROM/eeprom.c **** {
  96              		.loc 1 18 1 is_stmt 1 view -0
  97              		.cfi_startproc
  98              		@ args = 0, pretend = 0, frame = 0
ARM GAS  C:\Users\YKESH~1\AppData\Local\Temp\ccsdeDr2.s 			page 3


  99              		@ frame_needed = 0, uses_anonymous_args = 0
 100              		.loc 1 18 1 is_stmt 0 view .LVU19
 101 0000 10B5     		push	{r4, lr}
 102              	.LCFI1:
 103              		.cfi_def_cfa_offset 8
 104              		.cfi_offset 4, -8
 105              		.cfi_offset 14, -4
 106 0002 82B0     		sub	sp, sp, #8
 107              	.LCFI2:
 108              		.cfi_def_cfa_offset 16
 109 0004 0846     		mov	r0, r1
 110              	.LVL7:
 111              		.loc 1 18 1 view .LVU20
 112 0006 1346     		mov	r3, r2
  19:Module/EEPROM/eeprom.c ****     EEP_txbuffer[0] = addr >> 8;
 113              		.loc 1 19 5 is_stmt 1 view .LVU21
 114              		.loc 1 19 21 is_stmt 0 view .LVU22
 115 0008 0949     		ldr	r1, .L11
 116              	.LVL8:
 117              		.loc 1 19 21 view .LVU23
 118 000a 020A     		lsrs	r2, r0, #8
 119              	.LVL9:
 120              		.loc 1 19 21 view .LVU24
 121 000c 0A70     		strb	r2, [r1]
  20:Module/EEPROM/eeprom.c ****     EEP_txbuffer[1] = addr | 0xFF00;
 122              		.loc 1 20 5 is_stmt 1 view .LVU25
 123              		.loc 1 20 21 is_stmt 0 view .LVU26
 124 000e 4870     		strb	r0, [r1, #1]
  21:Module/EEPROM/eeprom.c ****     Master_Complex(EEPROM_PORT_INDEX, EEP_txbuffer, 2, rxbuf, 1);
 125              		.loc 1 21 5 is_stmt 1 view .LVU27
 126 0010 0124     		movs	r4, #1
 127 0012 0094     		str	r4, [sp]
 128 0014 0222     		movs	r2, #2
 129 0016 2046     		mov	r0, r4
 130 0018 FFF7FEFF 		bl	Master_Complex
 131              	.LVL10:
  22:Module/EEPROM/eeprom.c ****     if(!BSP_IIC_sta(EEPROM_PORT_INDEX))return trans_err;
 132              		.loc 1 22 5 view .LVU28
 133              		.loc 1 22 9 is_stmt 0 view .LVU29
 134 001c 2046     		mov	r0, r4
 135 001e FFF7FEFF 		bl	BSP_IIC_sta
 136              	.LVL11:
 137              		.loc 1 22 7 view .LVU30
 138 0022 10B1     		cbz	r0, .L9
  23:Module/EEPROM/eeprom.c ****     return normal;
 139              		.loc 1 23 12 view .LVU31
 140 0024 0020     		movs	r0, #0
 141              	.L8:
  24:Module/EEPROM/eeprom.c **** }
 142              		.loc 1 24 1 view .LVU32
 143 0026 02B0     		add	sp, sp, #8
 144              	.LCFI3:
 145              		.cfi_remember_state
 146              		.cfi_def_cfa_offset 8
 147              		@ sp needed
 148 0028 10BD     		pop	{r4, pc}
 149              	.L9:
ARM GAS  C:\Users\YKESH~1\AppData\Local\Temp\ccsdeDr2.s 			page 4


 150              	.LCFI4:
 151              		.cfi_restore_state
  22:Module/EEPROM/eeprom.c ****     if(!BSP_IIC_sta(EEPROM_PORT_INDEX))return trans_err;
 152              		.loc 1 22 47 view .LVU33
 153 002a 0220     		movs	r0, #2
 154 002c FBE7     		b	.L8
 155              	.L12:
 156 002e 00BF     		.align	2
 157              	.L11:
 158 0030 00000000 		.word	.LANCHOR0
 159              		.cfi_endproc
 160              	.LFE236:
 162              		.section	.text.EEPROM_Write,"ax",%progbits
 163              		.align	1
 164              		.global	EEPROM_Write
 165              		.syntax unified
 166              		.thumb
 167              		.thumb_func
 169              	EEPROM_Write:
 170              	.LVL12:
 171              	.LFB237:
  25:Module/EEPROM/eeprom.c **** 
  26:Module/EEPROM/eeprom.c **** error_handle_type EEPROM_Write(uint16_t addr_head, uint8_t* pdata, uint16_t len)
  27:Module/EEPROM/eeprom.c **** {
 172              		.loc 1 27 1 is_stmt 1 view -0
 173              		.cfi_startproc
 174              		@ args = 0, pretend = 0, frame = 0
 175              		@ frame_needed = 0, uses_anonymous_args = 0
 176              		@ link register save eliminated.
  28:Module/EEPROM/eeprom.c ****     
  29:Module/EEPROM/eeprom.c **** }
 177              		.loc 1 29 1 view .LVU35
 178              	.LVL13:
 179              		.loc 1 29 1 is_stmt 0 view .LVU36
 180 0000 7047     		bx	lr
 181              		.cfi_endproc
 182              	.LFE237:
 184              		.section	.text.EEPROM_Read,"ax",%progbits
 185              		.align	1
 186              		.global	EEPROM_Read
 187              		.syntax unified
 188              		.thumb
 189              		.thumb_func
 191              	EEPROM_Read:
 192              	.LVL14:
 193              	.LFB238:
  30:Module/EEPROM/eeprom.c **** 
  31:Module/EEPROM/eeprom.c **** error_handle_type EEPROM_Read(uint16_t addr_head, uint8_t* rxbuf, uint16_t len)
  32:Module/EEPROM/eeprom.c **** {
 194              		.loc 1 32 1 is_stmt 1 view -0
 195              		.cfi_startproc
 196              		@ args = 0, pretend = 0, frame = 0
 197              		@ frame_needed = 0, uses_anonymous_args = 0
 198              		@ link register save eliminated.
  33:Module/EEPROM/eeprom.c ****     
  34:Module/EEPROM/eeprom.c **** }
 199              		.loc 1 34 1 view .LVU38
ARM GAS  C:\Users\YKESH~1\AppData\Local\Temp\ccsdeDr2.s 			page 5


 200              	.LVL15:
 201              		.loc 1 34 1 is_stmt 0 view .LVU39
 202 0000 7047     		bx	lr
 203              		.cfi_endproc
 204              	.LFE238:
 206              		.section	.text.EEPROM_Init,"ax",%progbits
 207              		.align	1
 208              		.global	EEPROM_Init
 209              		.syntax unified
 210              		.thumb
 211              		.thumb_func
 213              	EEPROM_Init:
 214              	.LFB239:
  35:Module/EEPROM/eeprom.c **** 
  36:Module/EEPROM/eeprom.c **** void EEPROM_Init(void)
  37:Module/EEPROM/eeprom.c **** {
 215              		.loc 1 37 1 is_stmt 1 view -0
 216              		.cfi_startproc
 217              		@ args = 0, pretend = 0, frame = 0
 218              		@ frame_needed = 0, uses_anonymous_args = 0
 219 0000 00B5     		push	{lr}
 220              	.LCFI5:
 221              		.cfi_def_cfa_offset 4
 222              		.cfi_offset 14, -4
 223 0002 83B0     		sub	sp, sp, #12
 224              	.LCFI6:
 225              		.cfi_def_cfa_offset 16
  38:Module/EEPROM/eeprom.c ****     BSP_IIC_setpara(EEPROM_PORT_INDEX, GPIOB, GPIO_PIN_10, GPIOB, GPIO_PIN_11, EEPROM_ADDR); //æŽ¥å
 226              		.loc 1 38 5 view .LVU41
 227 0004 0749     		ldr	r1, .L17
 228 0006 5023     		movs	r3, #80
 229 0008 0193     		str	r3, [sp, #4]
 230 000a 4FF40063 		mov	r3, #2048
 231 000e 0093     		str	r3, [sp]
 232 0010 0B46     		mov	r3, r1
 233 0012 4FF48062 		mov	r2, #1024
 234 0016 0120     		movs	r0, #1
 235 0018 FFF7FEFF 		bl	BSP_IIC_setpara
 236              	.LVL16:
  39:Module/EEPROM/eeprom.c **** }...
 237              		.loc 1 39 1 is_stmt 0 view .LVU42
 238 001c 03B0     		add	sp, sp, #12
 239              	.LCFI7:
 240              		.cfi_def_cfa_offset 4
 241              		@ sp needed
 242 001e 5DF804FB 		ldr	pc, [sp], #4
 243              	.L18:
 244 0022 00BF     		.align	2
 245              	.L17:
 246 0024 00040240 		.word	1073873920
 247              		.cfi_endproc
 248              	.LFE239:
 250              		.global	EEP_rxbuffer
 251              		.global	EEP_txbuffer
 252              		.section	.bss.EEP_rxbuffer,"aw",%nobits
 253              		.align	2
 256              	EEP_rxbuffer:
ARM GAS  C:\Users\YKESH~1\AppData\Local\Temp\ccsdeDr2.s 			page 6


 257 0000 00000000 		.space	10
 257      00000000 
 257      0000
 258              		.section	.bss.EEP_txbuffer,"aw",%nobits
 259              		.align	2
 260              		.set	.LANCHOR0,. + 0
 263              	EEP_txbuffer:
 264 0000 00000000 		.space	10
 264      00000000 
 264      0000
 265              		.text
 266              	.Letext0:
 267              		.file 2 "d:\\program files\\gnu arm embedded toolchain\\10 2021.10\\arm-none-eabi\\include\\machin
 268              		.file 3 "d:\\program files\\gnu arm embedded toolchain\\10 2021.10\\arm-none-eabi\\include\\sys\\_
 269              		.file 4 "Drivers/CMSIS/Device/ST/STM32F4xx/Include/stm32f407xx.h"
 270              		.file 5 "bsp/Inc/bsp_iic.h"
 271              		.file 6 "backup/Inc/error_handle.h"
ARM GAS  C:\Users\YKESH~1\AppData\Local\Temp\ccsdeDr2.s 			page 7

