ARM GAS  C:\Users\YKESH~1\AppData\Local\Temp\ccOAp4jO.s 			page 1


   1              		.cpu cortex-m4
   2              		.arch armv7e-m
   3              		.fpu fpv4-sp-d16
   4              		.eabi_attribute 27, 1
   5              		.eabi_attribute 28, 1
   6              		.eabi_attribute 20, 1
   7              		.eabi_attribute 21, 1
   8              		.eabi_attribute 23, 3
   9              		.eabi_attribute 24, 1
  10              		.eabi_attribute 25, 1
  11              		.eabi_attribute 26, 1
  12              		.eabi_attribute 30, 1
  13              		.eabi_attribute 34, 1
  14              		.eabi_attribute 18, 4
  15              		.file	"SHT_sensor.c"
  16              		.text
  17              	.Ltext0:
  18              		.cfi_sections	.debug_frame
  19              		.section	.text.SHT_sensor_set_periodic,"ax",%progbits
  20              		.align	1
  21              		.global	SHT_sensor_set_periodic
  22              		.syntax unified
  23              		.thumb
  24              		.thumb_func
  26              	SHT_sensor_set_periodic:
  27              	.LVL0:
  28              	.LFB235:
  29              		.file 1 "Module/SHT_sensor/SHT_sensor.c"
   1:Module/SHT_sensor/SHT_sensor.c **** #include "SHT_sensor.h"
   2:Module/SHT_sensor/SHT_sensor.c **** #include "string.h"
   3:Module/SHT_sensor/SHT_sensor.c **** #include "myfunc.h"
   4:Module/SHT_sensor/SHT_sensor.c **** #include "stdlib.h"
   5:Module/SHT_sensor/SHT_sensor.c **** #include "instance.h"
   6:Module/SHT_sensor/SHT_sensor.c **** //周期模式
   7:Module/SHT_sensor/SHT_sensor.c **** const uint8_t periodic_set[] = {0x20, 0x32, 0x20, 0x24, 0x20, 0x2F,\
   8:Module/SHT_sensor/SHT_sensor.c ****                                 0x21, 0x30, 0x21, 0x26, 0x21, 0x2D,\
   9:Module/SHT_sensor/SHT_sensor.c ****                                 0x22, 0x36, 0x22, 0x20, 0x22, 0x2B,\
  10:Module/SHT_sensor/SHT_sensor.c ****                                 0x23, 0x34, 0x23, 0x22, 0x23, 0x29,\
  11:Module/SHT_sensor/SHT_sensor.c ****                                 0x27, 0x37, 0x27, 0x21, 0x27, 0x2A};
  12:Module/SHT_sensor/SHT_sensor.c **** 
  13:Module/SHT_sensor/SHT_sensor.c **** const uint8_t periodic_fetch[2] = {0xE0, 0x00};
  14:Module/SHT_sensor/SHT_sensor.c **** const uint8_t periodic_break[2] = {0x30, 0x93};
  15:Module/SHT_sensor/SHT_sensor.c **** 
  16:Module/SHT_sensor/SHT_sensor.c **** //单次模式
  17:Module/SHT_sensor/SHT_sensor.c **** //时钟拉伸不选用
  18:Module/SHT_sensor/SHT_sensor.c **** const uint8_t single_set_high[2] = {0x2C, 0x06};
  19:Module/SHT_sensor/SHT_sensor.c **** const uint8_t single_set_medium[2] = {0x24, 0x0B};
  20:Module/SHT_sensor/SHT_sensor.c **** const uint8_t single_set_low[2] = {0x24, 0x16};
  21:Module/SHT_sensor/SHT_sensor.c **** 
  22:Module/SHT_sensor/SHT_sensor.c **** //周期停止命令
  23:Module/SHT_sensor/SHT_sensor.c **** const uint8_t break_command[2] = {0x30, 0x93};
  24:Module/SHT_sensor/SHT_sensor.c **** 
  25:Module/SHT_sensor/SHT_sensor.c **** SHT_data my_SHT_data;
  26:Module/SHT_sensor/SHT_sensor.c **** 
  27:Module/SHT_sensor/SHT_sensor.c **** uint8_t SHT_txbuffer[10] = {};
  28:Module/SHT_sensor/SHT_sensor.c **** uint8_t SHT_rxbuffer[10] = {};
  29:Module/SHT_sensor/SHT_sensor.c **** 
ARM GAS  C:\Users\YKESH~1\AppData\Local\Temp\ccOAp4jO.s 			page 2


  30:Module/SHT_sensor/SHT_sensor.c **** error_handle_type SHT_sensor_set_periodic(uint8_t iic_index, setting_periodic_mode mode)
  31:Module/SHT_sensor/SHT_sensor.c **** {
  30              		.loc 1 31 1 view -0
  31              		.cfi_startproc
  32              		@ args = 0, pretend = 0, frame = 0
  33              		@ frame_needed = 0, uses_anonymous_args = 0
  34              		.loc 1 31 1 is_stmt 0 view .LVU1
  35 0000 10B5     		push	{r4, lr}
  36              	.LCFI0:
  37              		.cfi_def_cfa_offset 8
  38              		.cfi_offset 4, -8
  39              		.cfi_offset 14, -4
  40 0002 0446     		mov	r4, r0
  32:Module/SHT_sensor/SHT_sensor.c ****     memcpy(SHT_txbuffer, periodic_set + mode * 2, 2);
  41              		.loc 1 32 5 is_stmt 1 view .LVU2
  42 0004 074B     		ldr	r3, .L6
  43 0006 33F81130 		ldrh	r3, [r3, r1, lsl #1]	@ unaligned
  44 000a 0749     		ldr	r1, .L6+4
  45              	.LVL1:
  46              		.loc 1 32 5 is_stmt 0 view .LVU3
  47 000c 0B80     		strh	r3, [r1]	@ movhi
  33:Module/SHT_sensor/SHT_sensor.c ****     Master_Transmit(iic_index, SHT_txbuffer, 2);
  48              		.loc 1 33 5 is_stmt 1 view .LVU4
  49 000e 0222     		movs	r2, #2
  50 0010 FFF7FEFF 		bl	Master_Transmit
  51              	.LVL2:
  34:Module/SHT_sensor/SHT_sensor.c ****     if(!BSP_IIC_sta(iic_index)){
  52              		.loc 1 34 5 view .LVU5
  53              		.loc 1 34 9 is_stmt 0 view .LVU6
  54 0014 2046     		mov	r0, r4
  55 0016 FFF7FEFF 		bl	BSP_IIC_sta
  56              	.LVL3:
  57              		.loc 1 34 7 view .LVU7
  58 001a 08B1     		cbz	r0, .L5
  35:Module/SHT_sensor/SHT_sensor.c ****         return trans_err;
  36:Module/SHT_sensor/SHT_sensor.c ****     }
  37:Module/SHT_sensor/SHT_sensor.c ****     else {
  38:Module/SHT_sensor/SHT_sensor.c ****         return normal;
  59              		.loc 1 38 16 view .LVU8
  60 001c 0020     		movs	r0, #0
  61              	.L2:
  39:Module/SHT_sensor/SHT_sensor.c ****     }
  40:Module/SHT_sensor/SHT_sensor.c **** }
  62              		.loc 1 40 1 view .LVU9
  63 001e 10BD     		pop	{r4, pc}
  64              	.L5:
  35:Module/SHT_sensor/SHT_sensor.c ****         return trans_err;
  65              		.loc 1 35 16 view .LVU10
  66 0020 0220     		movs	r0, #2
  67 0022 FCE7     		b	.L2
  68              	.L7:
  69              		.align	2
  70              	.L6:
  71 0024 00000000 		.word	.LANCHOR0
  72 0028 00000000 		.word	.LANCHOR1
  73              		.cfi_endproc
  74              	.LFE235:
ARM GAS  C:\Users\YKESH~1\AppData\Local\Temp\ccOAp4jO.s 			page 3


  76              		.section	.text.SHT_sensor_break,"ax",%progbits
  77              		.align	1
  78              		.global	SHT_sensor_break
  79              		.syntax unified
  80              		.thumb
  81              		.thumb_func
  83              	SHT_sensor_break:
  84              	.LVL4:
  85              	.LFB236:
  41:Module/SHT_sensor/SHT_sensor.c **** 
  42:Module/SHT_sensor/SHT_sensor.c **** error_handle_type SHT_sensor_break(uint8_t iic_index, uint8_t ADDR)
  43:Module/SHT_sensor/SHT_sensor.c **** {
  86              		.loc 1 43 1 is_stmt 1 view -0
  87              		.cfi_startproc
  88              		@ args = 0, pretend = 0, frame = 0
  89              		@ frame_needed = 0, uses_anonymous_args = 0
  90              		.loc 1 43 1 is_stmt 0 view .LVU12
  91 0000 10B5     		push	{r4, lr}
  92              	.LCFI1:
  93              		.cfi_def_cfa_offset 8
  94              		.cfi_offset 4, -8
  95              		.cfi_offset 14, -4
  96 0002 0446     		mov	r4, r0
  44:Module/SHT_sensor/SHT_sensor.c ****     memcpy(SHT_txbuffer, periodic_break, 2);
  97              		.loc 1 44 5 is_stmt 1 view .LVU13
  98 0004 0749     		ldr	r1, .L13
  99              	.LVL5:
 100              		.loc 1 44 5 is_stmt 0 view .LVU14
 101 0006 49F23033 		movw	r3, #37680
 102 000a 0B80     		strh	r3, [r1]	@ movhi
  45:Module/SHT_sensor/SHT_sensor.c ****     Master_Transmit(iic_index, SHT_txbuffer, 2);
 103              		.loc 1 45 5 is_stmt 1 view .LVU15
 104 000c 0222     		movs	r2, #2
 105 000e FFF7FEFF 		bl	Master_Transmit
 106              	.LVL6:
  46:Module/SHT_sensor/SHT_sensor.c ****     if(!BSP_IIC_sta(iic_index)){
 107              		.loc 1 46 5 view .LVU16
 108              		.loc 1 46 9 is_stmt 0 view .LVU17
 109 0012 2046     		mov	r0, r4
 110 0014 FFF7FEFF 		bl	BSP_IIC_sta
 111              	.LVL7:
 112              		.loc 1 46 7 view .LVU18
 113 0018 08B1     		cbz	r0, .L12
  47:Module/SHT_sensor/SHT_sensor.c ****         return trans_err;
  48:Module/SHT_sensor/SHT_sensor.c ****     }
  49:Module/SHT_sensor/SHT_sensor.c ****     else {
  50:Module/SHT_sensor/SHT_sensor.c ****         return normal;
 114              		.loc 1 50 16 view .LVU19
 115 001a 0020     		movs	r0, #0
 116              	.L9:
  51:Module/SHT_sensor/SHT_sensor.c ****     }
  52:Module/SHT_sensor/SHT_sensor.c **** }
 117              		.loc 1 52 1 view .LVU20
 118 001c 10BD     		pop	{r4, pc}
 119              	.L12:
  47:Module/SHT_sensor/SHT_sensor.c ****         return trans_err;
 120              		.loc 1 47 16 view .LVU21
ARM GAS  C:\Users\YKESH~1\AppData\Local\Temp\ccOAp4jO.s 			page 4


 121 001e 0220     		movs	r0, #2
 122 0020 FCE7     		b	.L9
 123              	.L14:
 124 0022 00BF     		.align	2
 125              	.L13:
 126 0024 00000000 		.word	.LANCHOR1
 127              		.cfi_endproc
 128              	.LFE236:
 130              		.section	.text.SHT_arr_Create,"ax",%progbits
 131              		.align	1
 132              		.global	SHT_arr_Create
 133              		.syntax unified
 134              		.thumb
 135              		.thumb_func
 137              	SHT_arr_Create:
 138              	.LVL8:
 139              	.LFB237:
  53:Module/SHT_sensor/SHT_sensor.c **** 
  54:Module/SHT_sensor/SHT_sensor.c **** //根据num这一变量创建数组
  55:Module/SHT_sensor/SHT_sensor.c **** void SHT_arr_Create(SHT_data* data_obj)
  56:Module/SHT_sensor/SHT_sensor.c **** {
 140              		.loc 1 56 1 is_stmt 1 view -0
 141              		.cfi_startproc
 142              		@ args = 0, pretend = 0, frame = 0
 143              		@ frame_needed = 0, uses_anonymous_args = 0
 144              		.loc 1 56 1 is_stmt 0 view .LVU23
 145 0000 38B5     		push	{r3, r4, r5, lr}
 146              	.LCFI2:
 147              		.cfi_def_cfa_offset 16
 148              		.cfi_offset 3, -16
 149              		.cfi_offset 4, -12
 150              		.cfi_offset 5, -8
 151              		.cfi_offset 14, -4
 152 0002 0446     		mov	r4, r0
  57:Module/SHT_sensor/SHT_sensor.c ****     uint16_t num = data_obj->num;
 153              		.loc 1 57 5 is_stmt 1 view .LVU24
 154              		.loc 1 57 14 is_stmt 0 view .LVU25
 155 0004 8588     		ldrh	r5, [r0, #4]	@ unaligned
 156              	.LVL9:
  58:Module/SHT_sensor/SHT_sensor.c ****     data_obj->pdata = malloc(num * sizeof(temp_humid_data));
 157              		.loc 1 58 5 is_stmt 1 view .LVU26
 158              		.loc 1 58 23 is_stmt 0 view .LVU27
 159 0006 A800     		lsls	r0, r5, #2
 160              	.LVL10:
 161              		.loc 1 58 23 view .LVU28
 162 0008 FFF7FEFF 		bl	malloc
 163              	.LVL11:
 164              		.loc 1 58 21 view .LVU29
 165 000c 2060     		str	r0, [r4]	@ unaligned
  59:Module/SHT_sensor/SHT_sensor.c ****     data_obj->pdata_real = malloc(num * sizeof(real_data));
 166              		.loc 1 59 5 is_stmt 1 view .LVU30
 167              		.loc 1 59 28 is_stmt 0 view .LVU31
 168 000e E800     		lsls	r0, r5, #3
 169 0010 FFF7FEFF 		bl	malloc
 170              	.LVL12:
 171              		.loc 1 59 26 view .LVU32
 172 0014 C4F80600 		str	r0, [r4, #6]	@ unaligned
ARM GAS  C:\Users\YKESH~1\AppData\Local\Temp\ccOAp4jO.s 			page 5


  60:Module/SHT_sensor/SHT_sensor.c **** }
 173              		.loc 1 60 1 view .LVU33
 174 0018 38BD     		pop	{r3, r4, r5, pc}
 175              		.loc 1 60 1 view .LVU34
 176              		.cfi_endproc
 177              	.LFE237:
 179              		.section	.text.SHT_sensor_data_handle,"ax",%progbits
 180              		.align	1
 181              		.global	SHT_sensor_data_handle
 182              		.syntax unified
 183              		.thumb
 184              		.thumb_func
 186              	SHT_sensor_data_handle:
 187              	.LVL13:
 188              	.LFB238:
  61:Module/SHT_sensor/SHT_sensor.c **** 
  62:Module/SHT_sensor/SHT_sensor.c **** error_handle_type SHT_sensor_data_handle(uint8_t iic_index, temp_humid_data* data_obj)
  63:Module/SHT_sensor/SHT_sensor.c **** {
 189              		.loc 1 63 1 is_stmt 1 view -0
 190              		.cfi_startproc
 191              		@ args = 0, pretend = 0, frame = 0
 192              		@ frame_needed = 0, uses_anonymous_args = 0
 193              		.loc 1 63 1 is_stmt 0 view .LVU36
 194 0000 30B5     		push	{r4, r5, lr}
 195              	.LCFI3:
 196              		.cfi_def_cfa_offset 12
 197              		.cfi_offset 4, -12
 198              		.cfi_offset 5, -8
 199              		.cfi_offset 14, -4
 200 0002 83B0     		sub	sp, sp, #12
 201              	.LCFI4:
 202              		.cfi_def_cfa_offset 24
 203 0004 0546     		mov	r5, r0
 204 0006 0C46     		mov	r4, r1
  64:Module/SHT_sensor/SHT_sensor.c ****     memcpy(SHT_txbuffer, periodic_fetch, 2);
 205              		.loc 1 64 5 is_stmt 1 view .LVU37
 206 0008 0E49     		ldr	r1, .L21
 207              	.LVL14:
 208              		.loc 1 64 5 is_stmt 0 view .LVU38
 209 000a E023     		movs	r3, #224
 210 000c 0B80     		strh	r3, [r1]	@ movhi
  65:Module/SHT_sensor/SHT_sensor.c ****     Master_Complex(SHT_PORT_INDEX, SHT_txbuffer, 2, SHT_rxbuffer, 6);
 211              		.loc 1 65 5 is_stmt 1 view .LVU39
 212 000e 0623     		movs	r3, #6
 213 0010 0093     		str	r3, [sp]
 214 0012 0D4B     		ldr	r3, .L21+4
 215 0014 0222     		movs	r2, #2
 216 0016 0020     		movs	r0, #0
 217              	.LVL15:
 218              		.loc 1 65 5 is_stmt 0 view .LVU40
 219 0018 FFF7FEFF 		bl	Master_Complex
 220              	.LVL16:
  66:Module/SHT_sensor/SHT_sensor.c ****     if (!BSP_IIC_sta(iic_index)) return trans_err;
 221              		.loc 1 66 5 is_stmt 1 view .LVU41
 222              		.loc 1 66 10 is_stmt 0 view .LVU42
 223 001c 2846     		mov	r0, r5
 224 001e FFF7FEFF 		bl	BSP_IIC_sta
ARM GAS  C:\Users\YKESH~1\AppData\Local\Temp\ccOAp4jO.s 			page 6


 225              	.LVL17:
 226              		.loc 1 66 8 view .LVU43
 227 0022 68B1     		cbz	r0, .L19
  67:Module/SHT_sensor/SHT_sensor.c **** 
  68:Module/SHT_sensor/SHT_sensor.c ****     //(CRC校验?)
  69:Module/SHT_sensor/SHT_sensor.c **** 
  70:Module/SHT_sensor/SHT_sensor.c ****     data_obj->temperature = ((uint16_t)SHT_rxbuffer[0] << 8) | SHT_rxbuffer[1];
 228              		.loc 1 70 5 is_stmt 1 view .LVU44
 229              		.loc 1 70 52 is_stmt 0 view .LVU45
 230 0024 084B     		ldr	r3, .L21+4
 231 0026 1978     		ldrb	r1, [r3]	@ zero_extendqisi2
 232              		.loc 1 70 76 view .LVU46
 233 0028 5A78     		ldrb	r2, [r3, #1]	@ zero_extendqisi2
 234              		.loc 1 70 62 view .LVU47
 235 002a 42EA0122 		orr	r2, r2, r1, lsl #8
 236              		.loc 1 70 27 view .LVU48
 237 002e 2280     		strh	r2, [r4]	@ unaligned
  71:Module/SHT_sensor/SHT_sensor.c ****     data_obj->humidity = ((uint16_t)SHT_rxbuffer[3] << 8) | SHT_rxbuffer[4];
 238              		.loc 1 71 5 is_stmt 1 view .LVU49
 239              		.loc 1 71 49 is_stmt 0 view .LVU50
 240 0030 DA78     		ldrb	r2, [r3, #3]	@ zero_extendqisi2
 241              		.loc 1 71 73 view .LVU51
 242 0032 1B79     		ldrb	r3, [r3, #4]	@ zero_extendqisi2
 243              		.loc 1 71 59 view .LVU52
 244 0034 43EA0223 		orr	r3, r3, r2, lsl #8
 245              		.loc 1 71 24 view .LVU53
 246 0038 6380     		strh	r3, [r4, #2]	@ unaligned
  72:Module/SHT_sensor/SHT_sensor.c **** 
  73:Module/SHT_sensor/SHT_sensor.c ****     return normal;
 247              		.loc 1 73 5 is_stmt 1 view .LVU54
 248              		.loc 1 73 12 is_stmt 0 view .LVU55
 249 003a 0020     		movs	r0, #0
 250              	.L18:
  74:Module/SHT_sensor/SHT_sensor.c **** }
 251              		.loc 1 74 1 view .LVU56
 252 003c 03B0     		add	sp, sp, #12
 253              	.LCFI5:
 254              		.cfi_remember_state
 255              		.cfi_def_cfa_offset 12
 256              		@ sp needed
 257 003e 30BD     		pop	{r4, r5, pc}
 258              	.LVL18:
 259              	.L19:
 260              	.LCFI6:
 261              		.cfi_restore_state
  66:Module/SHT_sensor/SHT_sensor.c **** 
 262              		.loc 1 66 41 view .LVU57
 263 0040 0220     		movs	r0, #2
 264 0042 FBE7     		b	.L18
 265              	.L22:
 266              		.align	2
 267              	.L21:
 268 0044 00000000 		.word	.LANCHOR1
 269 0048 00000000 		.word	.LANCHOR2
 270              		.cfi_endproc
 271              	.LFE238:
 273              		.section	.text.SHT_data_calc,"ax",%progbits
ARM GAS  C:\Users\YKESH~1\AppData\Local\Temp\ccOAp4jO.s 			page 7


 274              		.align	1
 275              		.global	SHT_data_calc
 276              		.syntax unified
 277              		.thumb
 278              		.thumb_func
 280              	SHT_data_calc:
 281              	.LVL19:
 282              	.LFB239:
  75:Module/SHT_sensor/SHT_sensor.c **** 
  76:Module/SHT_sensor/SHT_sensor.c **** void SHT_data_calc(SHT_data* data_obj)
  77:Module/SHT_sensor/SHT_sensor.c **** {
 283              		.loc 1 77 1 is_stmt 1 view -0
 284              		.cfi_startproc
 285              		@ args = 0, pretend = 0, frame = 0
 286              		@ frame_needed = 0, uses_anonymous_args = 0
 287              		@ link register save eliminated.
  78:Module/SHT_sensor/SHT_sensor.c ****     for (uint8_t i = 0; i < data_obj->num; i++){
 288              		.loc 1 78 5 view .LVU59
 289              	.LBB2:
 290              		.loc 1 78 10 view .LVU60
 291              		.loc 1 78 18 is_stmt 0 view .LVU61
 292 0000 0023     		movs	r3, #0
 293              		.loc 1 78 5 view .LVU62
 294 0002 43E0     		b	.L24
 295              	.LVL20:
 296              	.L25:
  79:Module/SHT_sensor/SHT_sensor.c ****         data_obj->aver_data.humidity += (data_obj->pdata_real[i].humidity = ((float)data_obj->pdata
 297              		.loc 1 79 9 is_stmt 1 discriminator 3 view .LVU63
 298              		.loc 1 79 93 is_stmt 0 discriminator 3 view .LVU64
 299 0004 0268     		ldr	r2, [r0]	@ unaligned
 300              		.loc 1 79 100 discriminator 3 view .LVU65
 301 0006 02EB8302 		add	r2, r2, r3, lsl #2
 302              		.loc 1 79 103 discriminator 3 view .LVU66
 303 000a 5288     		ldrh	r2, [r2, #2]	@ unaligned
 304 000c 07EE102A 		vmov	s14, r2	@ int
 305              		.loc 1 79 78 discriminator 3 view .LVU67
 306 0010 B8EE477A 		vcvt.f32.u32	s14, s14
 307              		.loc 1 79 113 discriminator 3 view .LVU68
 308 0014 DFED2C6A 		vldr.32	s13, .L26
 309 0018 C7EE267A 		vdiv.f32	s15, s14, s13
 310              		.loc 1 79 50 discriminator 3 view .LVU69
 311 001c D0F80620 		ldr	r2, [r0, #6]	@ unaligned
 312              		.loc 1 79 62 discriminator 3 view .LVU70
 313 0020 02EBC302 		add	r2, r2, r3, lsl #3
 314              		.loc 1 79 122 discriminator 3 view .LVU71
 315 0024 9FED297A 		vldr.32	s14, .L26+4
 316 0028 67EE877A 		vmul.f32	s15, s15, s14
 317              		.loc 1 79 75 discriminator 3 view .LVU72
 318 002c 17EE901A 		vmov	r1, s15
 319 0030 5160     		str	r1, [r2, #4]	@ unaligned
 320              		.loc 1 79 38 discriminator 3 view .LVU73
 321 0032 D0F80E20 		ldr	r2, [r0, #14]	@ unaligned
 322 0036 07EE102A 		vmov	s14, r2
 323 003a 77EE877A 		vadd.f32	s15, s15, s14
 324 003e 17EE902A 		vmov	r2, s15	@ int
 325 0042 C0F80E20 		str	r2, [r0, #14]	@ unaligned
  80:Module/SHT_sensor/SHT_sensor.c ****         data_obj->aver_data.humidity += (data_obj->pdata_real[i].temperature = ((float)data_obj->pd
ARM GAS  C:\Users\YKESH~1\AppData\Local\Temp\ccOAp4jO.s 			page 8


 326              		.loc 1 80 9 is_stmt 1 discriminator 3 view .LVU74
 327              		.loc 1 80 96 is_stmt 0 discriminator 3 view .LVU75
 328 0046 0268     		ldr	r2, [r0]	@ unaligned
 329              		.loc 1 80 106 discriminator 3 view .LVU76
 330 0048 32F82320 		ldrh	r2, [r2, r3, lsl #2]	@ unaligned
 331 004c 07EE102A 		vmov	s14, r2	@ int
 332              		.loc 1 80 81 discriminator 3 view .LVU77
 333 0050 B8EE477A 		vcvt.f32.u32	s14, s14
 334              		.loc 1 80 119 discriminator 3 view .LVU78
 335 0054 C7EE267A 		vdiv.f32	s15, s14, s13
 336              		.loc 1 80 128 discriminator 3 view .LVU79
 337 0058 9FED1D7A 		vldr.32	s14, .L26+8
 338 005c 67EE877A 		vmul.f32	s15, s15, s14
 339              		.loc 1 80 50 discriminator 3 view .LVU80
 340 0060 D0F80620 		ldr	r2, [r0, #6]	@ unaligned
 341              		.loc 1 80 134 discriminator 3 view .LVU81
 342 0064 9FED1B7A 		vldr.32	s14, .L26+12
 343 0068 77EEC77A 		vsub.f32	s15, s15, s14
 344              		.loc 1 80 78 discriminator 3 view .LVU82
 345 006c 17EE901A 		vmov	r1, s15
 346 0070 42F83310 		str	r1, [r2, r3, lsl #3]	@ unaligned
 347              		.loc 1 80 38 discriminator 3 view .LVU83
 348 0074 D0F80E20 		ldr	r2, [r0, #14]	@ unaligned
 349 0078 07EE102A 		vmov	s14, r2
 350 007c 77EE877A 		vadd.f32	s15, s15, s14
 351 0080 17EE902A 		vmov	r2, s15	@ int
 352 0084 C0F80E20 		str	r2, [r0, #14]	@ unaligned
  78:Module/SHT_sensor/SHT_sensor.c ****     for (uint8_t i = 0; i < data_obj->num; i++){
 353              		.loc 1 78 44 is_stmt 1 discriminator 3 view .LVU84
  78:Module/SHT_sensor/SHT_sensor.c ****     for (uint8_t i = 0; i < data_obj->num; i++){
 354              		.loc 1 78 45 is_stmt 0 discriminator 3 view .LVU85
 355 0088 0133     		adds	r3, r3, #1
 356              	.LVL21:
  78:Module/SHT_sensor/SHT_sensor.c ****     for (uint8_t i = 0; i < data_obj->num; i++){
 357              		.loc 1 78 45 discriminator 3 view .LVU86
 358 008a DBB2     		uxtb	r3, r3
 359              	.LVL22:
 360              	.L24:
  78:Module/SHT_sensor/SHT_sensor.c ****     for (uint8_t i = 0; i < data_obj->num; i++){
 361              		.loc 1 78 25 is_stmt 1 discriminator 1 view .LVU87
  78:Module/SHT_sensor/SHT_sensor.c ****     for (uint8_t i = 0; i < data_obj->num; i++){
 362              		.loc 1 78 27 is_stmt 0 discriminator 1 view .LVU88
 363 008c 9AB2     		uxth	r2, r3
  78:Module/SHT_sensor/SHT_sensor.c ****     for (uint8_t i = 0; i < data_obj->num; i++){
 364              		.loc 1 78 37 discriminator 1 view .LVU89
 365 008e 8188     		ldrh	r1, [r0, #4]	@ unaligned
  78:Module/SHT_sensor/SHT_sensor.c ****     for (uint8_t i = 0; i < data_obj->num; i++){
 366              		.loc 1 78 5 discriminator 1 view .LVU90
 367 0090 8A42     		cmp	r2, r1
 368 0092 B7D3     		bcc	.L25
 369              	.LBE2:
  81:Module/SHT_sensor/SHT_sensor.c ****     }
  82:Module/SHT_sensor/SHT_sensor.c ****     data_obj->aver_data.humidity /= data_obj->num;
 370              		.loc 1 82 5 is_stmt 1 view .LVU91
 371              		.loc 1 82 34 is_stmt 0 view .LVU92
 372 0094 07EE901A 		vmov	s15, r1	@ int
 373 0098 F8EEE77A 		vcvt.f32.s32	s15, s15
ARM GAS  C:\Users\YKESH~1\AppData\Local\Temp\ccOAp4jO.s 			page 9


 374 009c D0F80E20 		ldr	r2, [r0, #14]	@ unaligned
 375 00a0 07EE102A 		vmov	s14, r2
 376 00a4 87EE277A 		vdiv.f32	s14, s14, s15
 377 00a8 17EE103A 		vmov	r3, s14
 378              	.LVL23:
 379              		.loc 1 82 34 view .LVU93
 380 00ac C0F80E30 		str	r3, [r0, #14]	@ unaligned
  83:Module/SHT_sensor/SHT_sensor.c ****     data_obj->aver_data.temperature /= data_obj->num;
 381              		.loc 1 83 5 is_stmt 1 view .LVU94
 382              		.loc 1 83 37 is_stmt 0 view .LVU95
 383 00b0 D0F80A20 		ldr	r2, [r0, #10]	@ unaligned
 384 00b4 07EE102A 		vmov	s14, r2
 385 00b8 C7EE277A 		vdiv.f32	s15, s14, s15
 386 00bc 17EE903A 		vmov	r3, s15
 387 00c0 C0F80A30 		str	r3, [r0, #10]	@ unaligned
  84:Module/SHT_sensor/SHT_sensor.c **** }
 388              		.loc 1 84 1 view .LVU96
 389 00c4 7047     		bx	lr
 390              	.L27:
 391 00c6 00BF     		.align	2
 392              	.L26:
 393 00c8 00FF7F47 		.word	1199570688
 394 00cc 0000C842 		.word	1120403456
 395 00d0 00002F43 		.word	1127153664
 396 00d4 00003442 		.word	1110704128
 397              		.cfi_endproc
 398              	.LFE239:
 400              		.section	.text.SHT_sensor_Init,"ax",%progbits
 401              		.align	1
 402              		.global	SHT_sensor_Init
 403              		.syntax unified
 404              		.thumb
 405              		.thumb_func
 407              	SHT_sensor_Init:
 408              	.LFB240:
  85:Module/SHT_sensor/SHT_sensor.c **** 
  86:Module/SHT_sensor/SHT_sensor.c **** void SHT_sensor_Init(void)
  87:Module/SHT_sensor/SHT_sensor.c **** {
 409              		.loc 1 87 1 is_stmt 1 view -0
 410              		.cfi_startproc
 411              		@ args = 0, pretend = 0, frame = 0
 412              		@ frame_needed = 0, uses_anonymous_args = 0
 413 0000 10B5     		push	{r4, lr}
 414              	.LCFI7:
 415              		.cfi_def_cfa_offset 8
 416              		.cfi_offset 4, -8
 417              		.cfi_offset 14, -4
 418 0002 82B0     		sub	sp, sp, #8
 419              	.LCFI8:
 420              		.cfi_def_cfa_offset 16
  88:Module/SHT_sensor/SHT_sensor.c ****     database.SHT_data_p = &my_SHT_data;
 421              		.loc 1 88 5 view .LVU98
 422              		.loc 1 88 25 is_stmt 0 view .LVU99
 423 0004 0B4C     		ldr	r4, .L30
 424 0006 0C4B     		ldr	r3, .L30+4
 425 0008 1C60     		str	r4, [r3]
  89:Module/SHT_sensor/SHT_sensor.c ****     my_SHT_data.num = SHT_NUM;
ARM GAS  C:\Users\YKESH~1\AppData\Local\Temp\ccOAp4jO.s 			page 10


 426              		.loc 1 89 5 is_stmt 1 view .LVU100
 427              		.loc 1 89 21 is_stmt 0 view .LVU101
 428 000a 0123     		movs	r3, #1
 429 000c A380     		strh	r3, [r4, #4]	@ movhi
  90:Module/SHT_sensor/SHT_sensor.c ****     BSP_IIC_setpara(SHT_PORT_INDEX, GPIOB, GPIO_PIN_6, GPIOB, GPIO_PIN_7, SHT_ADDR);
 430              		.loc 1 90 5 is_stmt 1 view .LVU102
 431 000e 0B49     		ldr	r1, .L30+8
 432 0010 4523     		movs	r3, #69
 433 0012 0193     		str	r3, [sp, #4]
 434 0014 8023     		movs	r3, #128
 435 0016 0093     		str	r3, [sp]
 436 0018 0B46     		mov	r3, r1
 437 001a 4022     		movs	r2, #64
 438 001c 0020     		movs	r0, #0
 439 001e FFF7FEFF 		bl	BSP_IIC_setpara
 440              	.LVL24:
  91:Module/SHT_sensor/SHT_sensor.c **** 
  92:Module/SHT_sensor/SHT_sensor.c ****     SHT_arr_Create(&my_SHT_data);
 441              		.loc 1 92 5 view .LVU103
 442 0022 2046     		mov	r0, r4
 443 0024 FFF7FEFF 		bl	SHT_arr_Create
 444              	.LVL25:
  93:Module/SHT_sensor/SHT_sensor.c ****     SHT_sensor_set_periodic(SHT_PORT_INDEX, Medium_1);
 445              		.loc 1 93 5 view .LVU104
 446 0028 0421     		movs	r1, #4
 447 002a 0020     		movs	r0, #0
 448 002c FFF7FEFF 		bl	SHT_sensor_set_periodic
 449              	.LVL26:
  94:Module/SHT_sensor/SHT_sensor.c **** }
 450              		.loc 1 94 1 is_stmt 0 view .LVU105
 451 0030 02B0     		add	sp, sp, #8
 452              	.LCFI9:
 453              		.cfi_def_cfa_offset 8
 454              		@ sp needed
 455 0032 10BD     		pop	{r4, pc}
 456              	.L31:
 457              		.align	2
 458              	.L30:
 459 0034 00000000 		.word	.LANCHOR3
 460 0038 00000000 		.word	database
 461 003c 00040240 		.word	1073873920
 462              		.cfi_endproc
 463              	.LFE240:
 465              		.section	.text.sht_sensor_task,"ax",%progbits
 466              		.align	1
 467              		.global	sht_sensor_task
 468              		.syntax unified
 469              		.thumb
 470              		.thumb_func
 472              	sht_sensor_task:
 473              	.LFB241:
  95:Module/SHT_sensor/SHT_sensor.c **** 
  96:Module/SHT_sensor/SHT_sensor.c **** void sht_sensor_task(void)
  97:Module/SHT_sensor/SHT_sensor.c **** {
 474              		.loc 1 97 1 is_stmt 1 view -0
 475              		.cfi_startproc
 476              		@ args = 0, pretend = 0, frame = 0
ARM GAS  C:\Users\YKESH~1\AppData\Local\Temp\ccOAp4jO.s 			page 11


 477              		@ frame_needed = 0, uses_anonymous_args = 0
 478 0000 10B5     		push	{r4, lr}
 479              	.LCFI10:
 480              		.cfi_def_cfa_offset 8
 481              		.cfi_offset 4, -8
 482              		.cfi_offset 14, -4
  98:Module/SHT_sensor/SHT_sensor.c ****     database.SHT_sta = SHT_sensor_data_handle(SHT_PORT_INDEX, my_SHT_data.pdata);
 483              		.loc 1 98 5 view .LVU107
 484              		.loc 1 98 24 is_stmt 0 view .LVU108
 485 0002 054C     		ldr	r4, .L34
 486 0004 2168     		ldr	r1, [r4]
 487 0006 0020     		movs	r0, #0
 488 0008 FFF7FEFF 		bl	SHT_sensor_data_handle
 489              	.LVL27:
 490              		.loc 1 98 22 view .LVU109
 491 000c 034B     		ldr	r3, .L34+4
 492 000e 1873     		strb	r0, [r3, #12]
  99:Module/SHT_sensor/SHT_sensor.c ****     SHT_data_calc(&my_SHT_data);
 493              		.loc 1 99 5 is_stmt 1 view .LVU110
 494 0010 2046     		mov	r0, r4
 495 0012 FFF7FEFF 		bl	SHT_data_calc
 496              	.LVL28:
 100:Module/SHT_sensor/SHT_sensor.c **** }...
 497              		.loc 1 100 1 is_stmt 0 view .LVU111
 498 0016 10BD     		pop	{r4, pc}
 499              	.L35:
 500              		.align	2
 501              	.L34:
 502 0018 00000000 		.word	.LANCHOR3
 503 001c 00000000 		.word	database
 504              		.cfi_endproc
 505              	.LFE241:
 507              		.global	SHT_rxbuffer
 508              		.global	SHT_txbuffer
 509              		.global	my_SHT_data
 510              		.global	break_command
 511              		.global	single_set_low
 512              		.global	single_set_medium
 513              		.global	single_set_high
 514              		.global	periodic_break
 515              		.global	periodic_fetch
 516              		.global	periodic_set
 517              		.section	.bss.SHT_rxbuffer,"aw",%nobits
 518              		.align	2
 519              		.set	.LANCHOR2,. + 0
 522              	SHT_rxbuffer:
 523 0000 00000000 		.space	10
 523      00000000 
 523      0000
 524              		.section	.bss.SHT_txbuffer,"aw",%nobits
 525              		.align	2
 526              		.set	.LANCHOR1,. + 0
 529              	SHT_txbuffer:
 530 0000 00000000 		.space	10
 530      00000000 
 530      0000
 531              		.section	.bss.my_SHT_data,"aw",%nobits
ARM GAS  C:\Users\YKESH~1\AppData\Local\Temp\ccOAp4jO.s 			page 12


 532              		.align	2
 533              		.set	.LANCHOR3,. + 0
 536              	my_SHT_data:
 537 0000 00000000 		.space	18
 537      00000000 
 537      00000000 
 537      00000000 
 537      0000
 538              		.section	.rodata.break_command,"a"
 539              		.align	2
 542              	break_command:
 543 0000 3093     		.ascii	"0\223"
 544              		.section	.rodata.periodic_break,"a"
 545              		.align	2
 548              	periodic_break:
 549 0000 3093     		.ascii	"0\223"
 550              		.section	.rodata.periodic_fetch,"a"
 551              		.align	2
 554              	periodic_fetch:
 555 0000 E000     		.ascii	"\340\000"
 556              		.section	.rodata.periodic_set,"a"
 557              		.align	2
 558              		.set	.LANCHOR0,. + 0
 561              	periodic_set:
 562 0000 20322024 		.ascii	" 2 $ /!0!&!-\"6\" \"+#4#\"#)'7'!'*"
 562      202F2130 
 562      2126212D 
 562      22362220 
 562      222B2334 
 563              		.section	.rodata.single_set_high,"a"
 564              		.align	2
 567              	single_set_high:
 568 0000 2C06     		.ascii	",\006"
 569              		.section	.rodata.single_set_low,"a"
 570              		.align	2
 573              	single_set_low:
 574 0000 2416     		.ascii	"$\026"
 575              		.section	.rodata.single_set_medium,"a"
 576              		.align	2
 579              	single_set_medium:
 580 0000 240B     		.ascii	"$\013"
 581              		.text
 582              	.Letext0:
 583              		.file 2 "d:\\program files\\gnu arm embedded toolchain\\10 2021.10\\arm-none-eabi\\include\\machin
 584              		.file 3 "d:\\program files\\gnu arm embedded toolchain\\10 2021.10\\arm-none-eabi\\include\\sys\\_
 585              		.file 4 "backup/Inc/error_handle.h"
 586              		.file 5 "Drivers/CMSIS/Device/ST/STM32F4xx/Include/stm32f407xx.h"
 587              		.file 6 "Module/SHT_sensor/SHT_sensor.h"
 588              		.file 7 "Module/UV_sensor/UV_sensor.h"
 589              		.file 8 "Module/CO2_sensor/CO2_sensor.h"
 590              		.file 9 "backup/Inc/instance.h"
 591              		.file 10 "bsp/Inc/bsp_iic.h"
 592              		.file 11 "d:\\program files\\gnu arm embedded toolchain\\10 2021.10\\arm-none-eabi\\include\\stdli
ARM GAS  C:\Users\YKESH~1\AppData\Local\Temp\ccOAp4jO.s 			page 13

