ARM GAS  C:\Users\YKESH~1\AppData\Local\Temp\ccQEKsSE.s 			page 1


   1              		.cpu cortex-m4
   2              		.arch armv7e-m
   3              		.fpu fpv4-sp-d16
   4              		.eabi_attribute 27, 1
   5              		.eabi_attribute 28, 1
   6              		.eabi_attribute 20, 1
   7              		.eabi_attribute 21, 1
   8              		.eabi_attribute 23, 3
   9              		.eabi_attribute 24, 1
  10              		.eabi_attribute 25, 1
  11              		.eabi_attribute 26, 1
  12              		.eabi_attribute 30, 1
  13              		.eabi_attribute 34, 1
  14              		.eabi_attribute 18, 4
  15              		.file	"usart.c"
  16              		.text
  17              	.Ltext0:
  18              		.cfi_sections	.debug_frame
  19              		.section	.text.MX_USART1_UART_Init,"ax",%progbits
  20              		.align	1
  21              		.global	MX_USART1_UART_Init
  22              		.syntax unified
  23              		.thumb
  24              		.thumb_func
  26              	MX_USART1_UART_Init:
  27              	.LFB235:
  28              		.file 1 "Core/Src/usart.c"
   1:Core/Src/usart.c **** /* USER CODE BEGIN Header */
   2:Core/Src/usart.c **** /**
   3:Core/Src/usart.c ****   ******************************************************************************
   4:Core/Src/usart.c ****   * @file    usart.c
   5:Core/Src/usart.c ****   * @brief   This file provides code for the configuration
   6:Core/Src/usart.c ****   *          of the USART instances.
   7:Core/Src/usart.c ****   ******************************************************************************
   8:Core/Src/usart.c ****   * @attention
   9:Core/Src/usart.c ****   *
  10:Core/Src/usart.c ****   * Copyright (c) 2023 STMicroelectronics.
  11:Core/Src/usart.c ****   * All rights reserved.
  12:Core/Src/usart.c ****   *
  13:Core/Src/usart.c ****   * This software is licensed under terms that can be found in the LICENSE file
  14:Core/Src/usart.c ****   * in the root directory of this software component.
  15:Core/Src/usart.c ****   * If no LICENSE file comes with this software, it is provided AS-IS.
  16:Core/Src/usart.c ****   *
  17:Core/Src/usart.c ****   ******************************************************************************
  18:Core/Src/usart.c ****   */
  19:Core/Src/usart.c **** /* USER CODE END Header */
  20:Core/Src/usart.c **** /* Includes ------------------------------------------------------------------*/
  21:Core/Src/usart.c **** #include "usart.h"
  22:Core/Src/usart.c **** 
  23:Core/Src/usart.c **** /* USER CODE BEGIN 0 */
  24:Core/Src/usart.c **** 
  25:Core/Src/usart.c **** /* USER CODE END 0 */
  26:Core/Src/usart.c **** 
  27:Core/Src/usart.c **** UART_HandleTypeDef huart1;
  28:Core/Src/usart.c **** UART_HandleTypeDef huart2;
  29:Core/Src/usart.c **** DMA_HandleTypeDef hdma_usart1_rx;
  30:Core/Src/usart.c **** DMA_HandleTypeDef hdma_usart1_tx;
ARM GAS  C:\Users\YKESH~1\AppData\Local\Temp\ccQEKsSE.s 			page 2


  31:Core/Src/usart.c **** DMA_HandleTypeDef hdma_usart2_rx;
  32:Core/Src/usart.c **** DMA_HandleTypeDef hdma_usart2_tx;
  33:Core/Src/usart.c **** 
  34:Core/Src/usart.c **** /* USART1 init function */
  35:Core/Src/usart.c **** 
  36:Core/Src/usart.c **** void MX_USART1_UART_Init(void)
  37:Core/Src/usart.c **** {
  29              		.loc 1 37 1 view -0
  30              		.cfi_startproc
  31              		@ args = 0, pretend = 0, frame = 0
  32              		@ frame_needed = 0, uses_anonymous_args = 0
  33 0000 08B5     		push	{r3, lr}
  34              	.LCFI0:
  35              		.cfi_def_cfa_offset 8
  36              		.cfi_offset 3, -8
  37              		.cfi_offset 14, -4
  38:Core/Src/usart.c **** 
  39:Core/Src/usart.c ****   /* USER CODE BEGIN USART1_Init 0 */
  40:Core/Src/usart.c **** 
  41:Core/Src/usart.c ****   /* USER CODE END USART1_Init 0 */
  42:Core/Src/usart.c **** 
  43:Core/Src/usart.c ****   /* USER CODE BEGIN USART1_Init 1 */
  44:Core/Src/usart.c **** 
  45:Core/Src/usart.c ****   /* USER CODE END USART1_Init 1 */
  46:Core/Src/usart.c ****   huart1.Instance = USART1;
  38              		.loc 1 46 3 view .LVU1
  39              		.loc 1 46 19 is_stmt 0 view .LVU2
  40 0002 0A48     		ldr	r0, .L5
  41 0004 0A4B     		ldr	r3, .L5+4
  42 0006 0360     		str	r3, [r0]
  47:Core/Src/usart.c ****   huart1.Init.BaudRate = 172800;
  43              		.loc 1 47 3 is_stmt 1 view .LVU3
  44              		.loc 1 47 24 is_stmt 0 view .LVU4
  45 0008 0A4B     		ldr	r3, .L5+8
  46 000a 4360     		str	r3, [r0, #4]
  48:Core/Src/usart.c ****   huart1.Init.WordLength = UART_WORDLENGTH_8B;
  47              		.loc 1 48 3 is_stmt 1 view .LVU5
  48              		.loc 1 48 26 is_stmt 0 view .LVU6
  49 000c 0023     		movs	r3, #0
  50 000e 8360     		str	r3, [r0, #8]
  49:Core/Src/usart.c ****   huart1.Init.StopBits = UART_STOPBITS_1;
  51              		.loc 1 49 3 is_stmt 1 view .LVU7
  52              		.loc 1 49 24 is_stmt 0 view .LVU8
  53 0010 C360     		str	r3, [r0, #12]
  50:Core/Src/usart.c ****   huart1.Init.Parity = UART_PARITY_NONE;
  54              		.loc 1 50 3 is_stmt 1 view .LVU9
  55              		.loc 1 50 22 is_stmt 0 view .LVU10
  56 0012 0361     		str	r3, [r0, #16]
  51:Core/Src/usart.c ****   huart1.Init.Mode = UART_MODE_TX_RX;
  57              		.loc 1 51 3 is_stmt 1 view .LVU11
  58              		.loc 1 51 20 is_stmt 0 view .LVU12
  59 0014 0C22     		movs	r2, #12
  60 0016 4261     		str	r2, [r0, #20]
  52:Core/Src/usart.c ****   huart1.Init.HwFlowCtl = UART_HWCONTROL_NONE;
  61              		.loc 1 52 3 is_stmt 1 view .LVU13
  62              		.loc 1 52 25 is_stmt 0 view .LVU14
  63 0018 8361     		str	r3, [r0, #24]
ARM GAS  C:\Users\YKESH~1\AppData\Local\Temp\ccQEKsSE.s 			page 3


  53:Core/Src/usart.c ****   huart1.Init.OverSampling = UART_OVERSAMPLING_16;
  64              		.loc 1 53 3 is_stmt 1 view .LVU15
  65              		.loc 1 53 28 is_stmt 0 view .LVU16
  66 001a C361     		str	r3, [r0, #28]
  54:Core/Src/usart.c ****   if (HAL_UART_Init(&huart1) != HAL_OK)
  67              		.loc 1 54 3 is_stmt 1 view .LVU17
  68              		.loc 1 54 7 is_stmt 0 view .LVU18
  69 001c FFF7FEFF 		bl	HAL_UART_Init
  70              	.LVL0:
  71              		.loc 1 54 6 view .LVU19
  72 0020 00B9     		cbnz	r0, .L4
  73              	.L1:
  55:Core/Src/usart.c ****   {
  56:Core/Src/usart.c ****     Error_Handler();
  57:Core/Src/usart.c ****   }
  58:Core/Src/usart.c ****   /* USER CODE BEGIN USART1_Init 2 */
  59:Core/Src/usart.c **** 
  60:Core/Src/usart.c ****   /* USER CODE END USART1_Init 2 */
  61:Core/Src/usart.c **** 
  62:Core/Src/usart.c **** }
  74              		.loc 1 62 1 view .LVU20
  75 0022 08BD     		pop	{r3, pc}
  76              	.L4:
  56:Core/Src/usart.c ****   }
  77              		.loc 1 56 5 is_stmt 1 view .LVU21
  78 0024 FFF7FEFF 		bl	Error_Handler
  79              	.LVL1:
  80              		.loc 1 62 1 is_stmt 0 view .LVU22
  81 0028 FBE7     		b	.L1
  82              	.L6:
  83 002a 00BF     		.align	2
  84              	.L5:
  85 002c 00000000 		.word	.LANCHOR0
  86 0030 00100140 		.word	1073811456
  87 0034 00A30200 		.word	172800
  88              		.cfi_endproc
  89              	.LFE235:
  91              		.section	.text.MX_USART2_UART_Init,"ax",%progbits
  92              		.align	1
  93              		.global	MX_USART2_UART_Init
  94              		.syntax unified
  95              		.thumb
  96              		.thumb_func
  98              	MX_USART2_UART_Init:
  99              	.LFB236:
  63:Core/Src/usart.c **** /* USART2 init function */
  64:Core/Src/usart.c **** 
  65:Core/Src/usart.c **** void MX_USART2_UART_Init(void)
  66:Core/Src/usart.c **** {
 100              		.loc 1 66 1 is_stmt 1 view -0
 101              		.cfi_startproc
 102              		@ args = 0, pretend = 0, frame = 0
 103              		@ frame_needed = 0, uses_anonymous_args = 0
 104 0000 08B5     		push	{r3, lr}
 105              	.LCFI1:
 106              		.cfi_def_cfa_offset 8
 107              		.cfi_offset 3, -8
ARM GAS  C:\Users\YKESH~1\AppData\Local\Temp\ccQEKsSE.s 			page 4


 108              		.cfi_offset 14, -4
  67:Core/Src/usart.c **** 
  68:Core/Src/usart.c ****   /* USER CODE BEGIN USART2_Init 0 */
  69:Core/Src/usart.c **** 
  70:Core/Src/usart.c ****   /* USER CODE END USART2_Init 0 */
  71:Core/Src/usart.c **** 
  72:Core/Src/usart.c ****   /* USER CODE BEGIN USART2_Init 1 */
  73:Core/Src/usart.c **** 
  74:Core/Src/usart.c ****   /* USER CODE END USART2_Init 1 */
  75:Core/Src/usart.c ****   huart2.Instance = USART2;
 109              		.loc 1 75 3 view .LVU24
 110              		.loc 1 75 19 is_stmt 0 view .LVU25
 111 0002 0A48     		ldr	r0, .L11
 112 0004 0A4B     		ldr	r3, .L11+4
 113 0006 0360     		str	r3, [r0]
  76:Core/Src/usart.c ****   huart2.Init.BaudRate = 14400;
 114              		.loc 1 76 3 is_stmt 1 view .LVU26
 115              		.loc 1 76 24 is_stmt 0 view .LVU27
 116 0008 4FF46153 		mov	r3, #14400
 117 000c 4360     		str	r3, [r0, #4]
  77:Core/Src/usart.c ****   huart2.Init.WordLength = UART_WORDLENGTH_8B;
 118              		.loc 1 77 3 is_stmt 1 view .LVU28
 119              		.loc 1 77 26 is_stmt 0 view .LVU29
 120 000e 0023     		movs	r3, #0
 121 0010 8360     		str	r3, [r0, #8]
  78:Core/Src/usart.c ****   huart2.Init.StopBits = UART_STOPBITS_1;
 122              		.loc 1 78 3 is_stmt 1 view .LVU30
 123              		.loc 1 78 24 is_stmt 0 view .LVU31
 124 0012 C360     		str	r3, [r0, #12]
  79:Core/Src/usart.c ****   huart2.Init.Parity = UART_PARITY_NONE;
 125              		.loc 1 79 3 is_stmt 1 view .LVU32
 126              		.loc 1 79 22 is_stmt 0 view .LVU33
 127 0014 0361     		str	r3, [r0, #16]
  80:Core/Src/usart.c ****   huart2.Init.Mode = UART_MODE_TX_RX;
 128              		.loc 1 80 3 is_stmt 1 view .LVU34
 129              		.loc 1 80 20 is_stmt 0 view .LVU35
 130 0016 0C22     		movs	r2, #12
 131 0018 4261     		str	r2, [r0, #20]
  81:Core/Src/usart.c ****   huart2.Init.HwFlowCtl = UART_HWCONTROL_NONE;
 132              		.loc 1 81 3 is_stmt 1 view .LVU36
 133              		.loc 1 81 25 is_stmt 0 view .LVU37
 134 001a 8361     		str	r3, [r0, #24]
  82:Core/Src/usart.c ****   huart2.Init.OverSampling = UART_OVERSAMPLING_16;
 135              		.loc 1 82 3 is_stmt 1 view .LVU38
 136              		.loc 1 82 28 is_stmt 0 view .LVU39
 137 001c C361     		str	r3, [r0, #28]
  83:Core/Src/usart.c ****   if (HAL_UART_Init(&huart2) != HAL_OK)
 138              		.loc 1 83 3 is_stmt 1 view .LVU40
 139              		.loc 1 83 7 is_stmt 0 view .LVU41
 140 001e FFF7FEFF 		bl	HAL_UART_Init
 141              	.LVL2:
 142              		.loc 1 83 6 view .LVU42
 143 0022 00B9     		cbnz	r0, .L10
 144              	.L7:
  84:Core/Src/usart.c ****   {
  85:Core/Src/usart.c ****     Error_Handler();
  86:Core/Src/usart.c ****   }
ARM GAS  C:\Users\YKESH~1\AppData\Local\Temp\ccQEKsSE.s 			page 5


  87:Core/Src/usart.c ****   /* USER CODE BEGIN USART2_Init 2 */
  88:Core/Src/usart.c **** 
  89:Core/Src/usart.c ****   /* USER CODE END USART2_Init 2 */
  90:Core/Src/usart.c **** 
  91:Core/Src/usart.c **** }
 145              		.loc 1 91 1 view .LVU43
 146 0024 08BD     		pop	{r3, pc}
 147              	.L10:
  85:Core/Src/usart.c ****   }
 148              		.loc 1 85 5 is_stmt 1 view .LVU44
 149 0026 FFF7FEFF 		bl	Error_Handler
 150              	.LVL3:
 151              		.loc 1 91 1 is_stmt 0 view .LVU45
 152 002a FBE7     		b	.L7
 153              	.L12:
 154              		.align	2
 155              	.L11:
 156 002c 00000000 		.word	.LANCHOR1
 157 0030 00440040 		.word	1073759232
 158              		.cfi_endproc
 159              	.LFE236:
 161              		.section	.text.HAL_UART_MspInit,"ax",%progbits
 162              		.align	1
 163              		.global	HAL_UART_MspInit
 164              		.syntax unified
 165              		.thumb
 166              		.thumb_func
 168              	HAL_UART_MspInit:
 169              	.LVL4:
 170              	.LFB237:
  92:Core/Src/usart.c **** 
  93:Core/Src/usart.c **** void HAL_UART_MspInit(UART_HandleTypeDef* uartHandle)
  94:Core/Src/usart.c **** {
 171              		.loc 1 94 1 is_stmt 1 view -0
 172              		.cfi_startproc
 173              		@ args = 0, pretend = 0, frame = 40
 174              		@ frame_needed = 0, uses_anonymous_args = 0
 175              		.loc 1 94 1 is_stmt 0 view .LVU47
 176 0000 30B5     		push	{r4, r5, lr}
 177              	.LCFI2:
 178              		.cfi_def_cfa_offset 12
 179              		.cfi_offset 4, -12
 180              		.cfi_offset 5, -8
 181              		.cfi_offset 14, -4
 182 0002 8BB0     		sub	sp, sp, #44
 183              	.LCFI3:
 184              		.cfi_def_cfa_offset 56
 185 0004 0446     		mov	r4, r0
  95:Core/Src/usart.c **** 
  96:Core/Src/usart.c ****   GPIO_InitTypeDef GPIO_InitStruct = {0};
 186              		.loc 1 96 3 is_stmt 1 view .LVU48
 187              		.loc 1 96 20 is_stmt 0 view .LVU49
 188 0006 0023     		movs	r3, #0
 189 0008 0593     		str	r3, [sp, #20]
 190 000a 0693     		str	r3, [sp, #24]
 191 000c 0793     		str	r3, [sp, #28]
 192 000e 0893     		str	r3, [sp, #32]
ARM GAS  C:\Users\YKESH~1\AppData\Local\Temp\ccQEKsSE.s 			page 6


 193 0010 0993     		str	r3, [sp, #36]
  97:Core/Src/usart.c ****   if(uartHandle->Instance==USART1)
 194              		.loc 1 97 3 is_stmt 1 view .LVU50
 195              		.loc 1 97 16 is_stmt 0 view .LVU51
 196 0012 0368     		ldr	r3, [r0]
 197              		.loc 1 97 5 view .LVU52
 198 0014 634A     		ldr	r2, .L27
 199 0016 9342     		cmp	r3, r2
 200 0018 04D0     		beq	.L21
  98:Core/Src/usart.c ****   {
  99:Core/Src/usart.c ****   /* USER CODE BEGIN USART1_MspInit 0 */
 100:Core/Src/usart.c **** 
 101:Core/Src/usart.c ****   /* USER CODE END USART1_MspInit 0 */
 102:Core/Src/usart.c ****     /* USART1 clock enable */
 103:Core/Src/usart.c ****     __HAL_RCC_USART1_CLK_ENABLE();
 104:Core/Src/usart.c **** 
 105:Core/Src/usart.c ****     __HAL_RCC_GPIOA_CLK_ENABLE();
 106:Core/Src/usart.c ****     /**USART1 GPIO Configuration
 107:Core/Src/usart.c ****     PA9     ------> USART1_TX
 108:Core/Src/usart.c ****     PA10     ------> USART1_RX
 109:Core/Src/usart.c ****     */
 110:Core/Src/usart.c ****     GPIO_InitStruct.Pin = GPIO_PIN_9|GPIO_PIN_10;
 111:Core/Src/usart.c ****     GPIO_InitStruct.Mode = GPIO_MODE_AF_PP;
 112:Core/Src/usart.c ****     GPIO_InitStruct.Pull = GPIO_NOPULL;
 113:Core/Src/usart.c ****     GPIO_InitStruct.Speed = GPIO_SPEED_FREQ_VERY_HIGH;
 114:Core/Src/usart.c ****     GPIO_InitStruct.Alternate = GPIO_AF7_USART1;
 115:Core/Src/usart.c ****     HAL_GPIO_Init(GPIOA, &GPIO_InitStruct);
 116:Core/Src/usart.c **** 
 117:Core/Src/usart.c ****     /* USART1 DMA Init */
 118:Core/Src/usart.c ****     /* USART1_RX Init */
 119:Core/Src/usart.c ****     hdma_usart1_rx.Instance = DMA2_Stream2;
 120:Core/Src/usart.c ****     hdma_usart1_rx.Init.Channel = DMA_CHANNEL_4;
 121:Core/Src/usart.c ****     hdma_usart1_rx.Init.Direction = DMA_PERIPH_TO_MEMORY;
 122:Core/Src/usart.c ****     hdma_usart1_rx.Init.PeriphInc = DMA_PINC_DISABLE;
 123:Core/Src/usart.c ****     hdma_usart1_rx.Init.MemInc = DMA_MINC_ENABLE;
 124:Core/Src/usart.c ****     hdma_usart1_rx.Init.PeriphDataAlignment = DMA_PDATAALIGN_BYTE;
 125:Core/Src/usart.c ****     hdma_usart1_rx.Init.MemDataAlignment = DMA_MDATAALIGN_BYTE;
 126:Core/Src/usart.c ****     hdma_usart1_rx.Init.Mode = DMA_NORMAL;
 127:Core/Src/usart.c ****     hdma_usart1_rx.Init.Priority = DMA_PRIORITY_LOW;
 128:Core/Src/usart.c ****     hdma_usart1_rx.Init.FIFOMode = DMA_FIFOMODE_DISABLE;
 129:Core/Src/usart.c ****     if (HAL_DMA_Init(&hdma_usart1_rx) != HAL_OK)
 130:Core/Src/usart.c ****     {
 131:Core/Src/usart.c ****       Error_Handler();
 132:Core/Src/usart.c ****     }
 133:Core/Src/usart.c **** 
 134:Core/Src/usart.c ****     __HAL_LINKDMA(uartHandle,hdmarx,hdma_usart1_rx);
 135:Core/Src/usart.c **** 
 136:Core/Src/usart.c ****     /* USART1_TX Init */
 137:Core/Src/usart.c ****     hdma_usart1_tx.Instance = DMA2_Stream7;
 138:Core/Src/usart.c ****     hdma_usart1_tx.Init.Channel = DMA_CHANNEL_4;
 139:Core/Src/usart.c ****     hdma_usart1_tx.Init.Direction = DMA_MEMORY_TO_PERIPH;
 140:Core/Src/usart.c ****     hdma_usart1_tx.Init.PeriphInc = DMA_PINC_DISABLE;
 141:Core/Src/usart.c ****     hdma_usart1_tx.Init.MemInc = DMA_MINC_ENABLE;
 142:Core/Src/usart.c ****     hdma_usart1_tx.Init.PeriphDataAlignment = DMA_PDATAALIGN_BYTE;
 143:Core/Src/usart.c ****     hdma_usart1_tx.Init.MemDataAlignment = DMA_MDATAALIGN_BYTE;
 144:Core/Src/usart.c ****     hdma_usart1_tx.Init.Mode = DMA_NORMAL;
 145:Core/Src/usart.c ****     hdma_usart1_tx.Init.Priority = DMA_PRIORITY_LOW;
ARM GAS  C:\Users\YKESH~1\AppData\Local\Temp\ccQEKsSE.s 			page 7


 146:Core/Src/usart.c ****     hdma_usart1_tx.Init.FIFOMode = DMA_FIFOMODE_DISABLE;
 147:Core/Src/usart.c ****     if (HAL_DMA_Init(&hdma_usart1_tx) != HAL_OK)
 148:Core/Src/usart.c ****     {
 149:Core/Src/usart.c ****       Error_Handler();
 150:Core/Src/usart.c ****     }
 151:Core/Src/usart.c **** 
 152:Core/Src/usart.c ****     __HAL_LINKDMA(uartHandle,hdmatx,hdma_usart1_tx);
 153:Core/Src/usart.c **** 
 154:Core/Src/usart.c ****     /* USART1 interrupt Init */
 155:Core/Src/usart.c ****     HAL_NVIC_SetPriority(USART1_IRQn, 5, 0);
 156:Core/Src/usart.c ****     HAL_NVIC_EnableIRQ(USART1_IRQn);
 157:Core/Src/usart.c ****   /* USER CODE BEGIN USART1_MspInit 1 */
 158:Core/Src/usart.c **** 
 159:Core/Src/usart.c ****   /* USER CODE END USART1_MspInit 1 */
 160:Core/Src/usart.c ****   }
 161:Core/Src/usart.c ****   else if(uartHandle->Instance==USART2)
 201              		.loc 1 161 8 is_stmt 1 view .LVU53
 202              		.loc 1 161 10 is_stmt 0 view .LVU54
 203 001a 634A     		ldr	r2, .L27+4
 204 001c 9342     		cmp	r3, r2
 205 001e 61D0     		beq	.L22
 206              	.LVL5:
 207              	.L13:
 162:Core/Src/usart.c ****   {
 163:Core/Src/usart.c ****   /* USER CODE BEGIN USART2_MspInit 0 */
 164:Core/Src/usart.c **** 
 165:Core/Src/usart.c ****   /* USER CODE END USART2_MspInit 0 */
 166:Core/Src/usart.c ****     /* USART2 clock enable */
 167:Core/Src/usart.c ****     __HAL_RCC_USART2_CLK_ENABLE();
 168:Core/Src/usart.c **** 
 169:Core/Src/usart.c ****     __HAL_RCC_GPIOA_CLK_ENABLE();
 170:Core/Src/usart.c ****     /**USART2 GPIO Configuration
 171:Core/Src/usart.c ****     PA2     ------> USART2_TX
 172:Core/Src/usart.c ****     PA3     ------> USART2_RX
 173:Core/Src/usart.c ****     */
 174:Core/Src/usart.c ****     GPIO_InitStruct.Pin = GPIO_PIN_2|GPIO_PIN_3;
 175:Core/Src/usart.c ****     GPIO_InitStruct.Mode = GPIO_MODE_AF_PP;
 176:Core/Src/usart.c ****     GPIO_InitStruct.Pull = GPIO_NOPULL;
 177:Core/Src/usart.c ****     GPIO_InitStruct.Speed = GPIO_SPEED_FREQ_VERY_HIGH;
 178:Core/Src/usart.c ****     GPIO_InitStruct.Alternate = GPIO_AF7_USART2;
 179:Core/Src/usart.c ****     HAL_GPIO_Init(GPIOA, &GPIO_InitStruct);
 180:Core/Src/usart.c **** 
 181:Core/Src/usart.c ****     /* USART2 DMA Init */
 182:Core/Src/usart.c ****     /* USART2_RX Init */
 183:Core/Src/usart.c ****     hdma_usart2_rx.Instance = DMA1_Stream5;
 184:Core/Src/usart.c ****     hdma_usart2_rx.Init.Channel = DMA_CHANNEL_4;
 185:Core/Src/usart.c ****     hdma_usart2_rx.Init.Direction = DMA_PERIPH_TO_MEMORY;
 186:Core/Src/usart.c ****     hdma_usart2_rx.Init.PeriphInc = DMA_PINC_DISABLE;
 187:Core/Src/usart.c ****     hdma_usart2_rx.Init.MemInc = DMA_MINC_ENABLE;
 188:Core/Src/usart.c ****     hdma_usart2_rx.Init.PeriphDataAlignment = DMA_PDATAALIGN_BYTE;
 189:Core/Src/usart.c ****     hdma_usart2_rx.Init.MemDataAlignment = DMA_MDATAALIGN_BYTE;
 190:Core/Src/usart.c ****     hdma_usart2_rx.Init.Mode = DMA_NORMAL;
 191:Core/Src/usart.c ****     hdma_usart2_rx.Init.Priority = DMA_PRIORITY_LOW;
 192:Core/Src/usart.c ****     hdma_usart2_rx.Init.FIFOMode = DMA_FIFOMODE_DISABLE;
 193:Core/Src/usart.c ****     if (HAL_DMA_Init(&hdma_usart2_rx) != HAL_OK)
 194:Core/Src/usart.c ****     {
 195:Core/Src/usart.c ****       Error_Handler();
ARM GAS  C:\Users\YKESH~1\AppData\Local\Temp\ccQEKsSE.s 			page 8


 196:Core/Src/usart.c ****     }
 197:Core/Src/usart.c **** 
 198:Core/Src/usart.c ****     __HAL_LINKDMA(uartHandle,hdmarx,hdma_usart2_rx);
 199:Core/Src/usart.c **** 
 200:Core/Src/usart.c ****     /* USART2_TX Init */
 201:Core/Src/usart.c ****     hdma_usart2_tx.Instance = DMA1_Stream6;
 202:Core/Src/usart.c ****     hdma_usart2_tx.Init.Channel = DMA_CHANNEL_4;
 203:Core/Src/usart.c ****     hdma_usart2_tx.Init.Direction = DMA_MEMORY_TO_PERIPH;
 204:Core/Src/usart.c ****     hdma_usart2_tx.Init.PeriphInc = DMA_PINC_DISABLE;
 205:Core/Src/usart.c ****     hdma_usart2_tx.Init.MemInc = DMA_MINC_ENABLE;
 206:Core/Src/usart.c ****     hdma_usart2_tx.Init.PeriphDataAlignment = DMA_PDATAALIGN_BYTE;
 207:Core/Src/usart.c ****     hdma_usart2_tx.Init.MemDataAlignment = DMA_MDATAALIGN_BYTE;
 208:Core/Src/usart.c ****     hdma_usart2_tx.Init.Mode = DMA_NORMAL;
 209:Core/Src/usart.c ****     hdma_usart2_tx.Init.Priority = DMA_PRIORITY_LOW;
 210:Core/Src/usart.c ****     hdma_usart2_tx.Init.FIFOMode = DMA_FIFOMODE_DISABLE;
 211:Core/Src/usart.c ****     if (HAL_DMA_Init(&hdma_usart2_tx) != HAL_OK)
 212:Core/Src/usart.c ****     {
 213:Core/Src/usart.c ****       Error_Handler();
 214:Core/Src/usart.c ****     }
 215:Core/Src/usart.c **** 
 216:Core/Src/usart.c ****     __HAL_LINKDMA(uartHandle,hdmatx,hdma_usart2_tx);
 217:Core/Src/usart.c **** 
 218:Core/Src/usart.c ****     /* USART2 interrupt Init */
 219:Core/Src/usart.c ****     HAL_NVIC_SetPriority(USART2_IRQn, 5, 0);
 220:Core/Src/usart.c ****     HAL_NVIC_EnableIRQ(USART2_IRQn);
 221:Core/Src/usart.c ****   /* USER CODE BEGIN USART2_MspInit 1 */
 222:Core/Src/usart.c **** 
 223:Core/Src/usart.c ****   /* USER CODE END USART2_MspInit 1 */
 224:Core/Src/usart.c ****   }
 225:Core/Src/usart.c **** }
 208              		.loc 1 225 1 view .LVU55
 209 0020 0BB0     		add	sp, sp, #44
 210              	.LCFI4:
 211              		.cfi_remember_state
 212              		.cfi_def_cfa_offset 12
 213              		@ sp needed
 214 0022 30BD     		pop	{r4, r5, pc}
 215              	.LVL6:
 216              	.L21:
 217              	.LCFI5:
 218              		.cfi_restore_state
 103:Core/Src/usart.c **** 
 219              		.loc 1 103 5 is_stmt 1 view .LVU56
 220              	.LBB2:
 103:Core/Src/usart.c **** 
 221              		.loc 1 103 5 view .LVU57
 222 0024 0025     		movs	r5, #0
 223 0026 0195     		str	r5, [sp, #4]
 103:Core/Src/usart.c **** 
 224              		.loc 1 103 5 view .LVU58
 225 0028 604B     		ldr	r3, .L27+8
 226 002a 5A6C     		ldr	r2, [r3, #68]
 227 002c 42F01002 		orr	r2, r2, #16
 228 0030 5A64     		str	r2, [r3, #68]
 103:Core/Src/usart.c **** 
 229              		.loc 1 103 5 view .LVU59
 230 0032 5A6C     		ldr	r2, [r3, #68]
ARM GAS  C:\Users\YKESH~1\AppData\Local\Temp\ccQEKsSE.s 			page 9


 231 0034 02F01002 		and	r2, r2, #16
 232 0038 0192     		str	r2, [sp, #4]
 103:Core/Src/usart.c **** 
 233              		.loc 1 103 5 view .LVU60
 234 003a 019A     		ldr	r2, [sp, #4]
 235              	.LBE2:
 103:Core/Src/usart.c **** 
 236              		.loc 1 103 5 view .LVU61
 105:Core/Src/usart.c ****     /**USART1 GPIO Configuration
 237              		.loc 1 105 5 view .LVU62
 238              	.LBB3:
 105:Core/Src/usart.c ****     /**USART1 GPIO Configuration
 239              		.loc 1 105 5 view .LVU63
 240 003c 0295     		str	r5, [sp, #8]
 105:Core/Src/usart.c ****     /**USART1 GPIO Configuration
 241              		.loc 1 105 5 view .LVU64
 242 003e 1A6B     		ldr	r2, [r3, #48]
 243 0040 42F00102 		orr	r2, r2, #1
 244 0044 1A63     		str	r2, [r3, #48]
 105:Core/Src/usart.c ****     /**USART1 GPIO Configuration
 245              		.loc 1 105 5 view .LVU65
 246 0046 1B6B     		ldr	r3, [r3, #48]
 247 0048 03F00103 		and	r3, r3, #1
 248 004c 0293     		str	r3, [sp, #8]
 105:Core/Src/usart.c ****     /**USART1 GPIO Configuration
 249              		.loc 1 105 5 view .LVU66
 250 004e 029B     		ldr	r3, [sp, #8]
 251              	.LBE3:
 105:Core/Src/usart.c ****     /**USART1 GPIO Configuration
 252              		.loc 1 105 5 view .LVU67
 110:Core/Src/usart.c ****     GPIO_InitStruct.Mode = GPIO_MODE_AF_PP;
 253              		.loc 1 110 5 view .LVU68
 110:Core/Src/usart.c ****     GPIO_InitStruct.Mode = GPIO_MODE_AF_PP;
 254              		.loc 1 110 25 is_stmt 0 view .LVU69
 255 0050 4FF4C063 		mov	r3, #1536
 256 0054 0593     		str	r3, [sp, #20]
 111:Core/Src/usart.c ****     GPIO_InitStruct.Pull = GPIO_NOPULL;
 257              		.loc 1 111 5 is_stmt 1 view .LVU70
 111:Core/Src/usart.c ****     GPIO_InitStruct.Pull = GPIO_NOPULL;
 258              		.loc 1 111 26 is_stmt 0 view .LVU71
 259 0056 0223     		movs	r3, #2
 260 0058 0693     		str	r3, [sp, #24]
 112:Core/Src/usart.c ****     GPIO_InitStruct.Speed = GPIO_SPEED_FREQ_VERY_HIGH;
 261              		.loc 1 112 5 is_stmt 1 view .LVU72
 113:Core/Src/usart.c ****     GPIO_InitStruct.Alternate = GPIO_AF7_USART1;
 262              		.loc 1 113 5 view .LVU73
 113:Core/Src/usart.c ****     GPIO_InitStruct.Alternate = GPIO_AF7_USART1;
 263              		.loc 1 113 27 is_stmt 0 view .LVU74
 264 005a 0323     		movs	r3, #3
 265 005c 0893     		str	r3, [sp, #32]
 114:Core/Src/usart.c ****     HAL_GPIO_Init(GPIOA, &GPIO_InitStruct);
 266              		.loc 1 114 5 is_stmt 1 view .LVU75
 114:Core/Src/usart.c ****     HAL_GPIO_Init(GPIOA, &GPIO_InitStruct);
 267              		.loc 1 114 31 is_stmt 0 view .LVU76
 268 005e 0723     		movs	r3, #7
 269 0060 0993     		str	r3, [sp, #36]
 115:Core/Src/usart.c **** 
ARM GAS  C:\Users\YKESH~1\AppData\Local\Temp\ccQEKsSE.s 			page 10


 270              		.loc 1 115 5 is_stmt 1 view .LVU77
 271 0062 05A9     		add	r1, sp, #20
 272 0064 5248     		ldr	r0, .L27+12
 273              	.LVL7:
 115:Core/Src/usart.c **** 
 274              		.loc 1 115 5 is_stmt 0 view .LVU78
 275 0066 FFF7FEFF 		bl	HAL_GPIO_Init
 276              	.LVL8:
 119:Core/Src/usart.c ****     hdma_usart1_rx.Init.Channel = DMA_CHANNEL_4;
 277              		.loc 1 119 5 is_stmt 1 view .LVU79
 119:Core/Src/usart.c ****     hdma_usart1_rx.Init.Channel = DMA_CHANNEL_4;
 278              		.loc 1 119 29 is_stmt 0 view .LVU80
 279 006a 5248     		ldr	r0, .L27+16
 280 006c 524B     		ldr	r3, .L27+20
 281 006e 0360     		str	r3, [r0]
 120:Core/Src/usart.c ****     hdma_usart1_rx.Init.Direction = DMA_PERIPH_TO_MEMORY;
 282              		.loc 1 120 5 is_stmt 1 view .LVU81
 120:Core/Src/usart.c ****     hdma_usart1_rx.Init.Direction = DMA_PERIPH_TO_MEMORY;
 283              		.loc 1 120 33 is_stmt 0 view .LVU82
 284 0070 4FF00063 		mov	r3, #134217728
 285 0074 4360     		str	r3, [r0, #4]
 121:Core/Src/usart.c ****     hdma_usart1_rx.Init.PeriphInc = DMA_PINC_DISABLE;
 286              		.loc 1 121 5 is_stmt 1 view .LVU83
 121:Core/Src/usart.c ****     hdma_usart1_rx.Init.PeriphInc = DMA_PINC_DISABLE;
 287              		.loc 1 121 35 is_stmt 0 view .LVU84
 288 0076 8560     		str	r5, [r0, #8]
 122:Core/Src/usart.c ****     hdma_usart1_rx.Init.MemInc = DMA_MINC_ENABLE;
 289              		.loc 1 122 5 is_stmt 1 view .LVU85
 122:Core/Src/usart.c ****     hdma_usart1_rx.Init.MemInc = DMA_MINC_ENABLE;
 290              		.loc 1 122 35 is_stmt 0 view .LVU86
 291 0078 C560     		str	r5, [r0, #12]
 123:Core/Src/usart.c ****     hdma_usart1_rx.Init.PeriphDataAlignment = DMA_PDATAALIGN_BYTE;
 292              		.loc 1 123 5 is_stmt 1 view .LVU87
 123:Core/Src/usart.c ****     hdma_usart1_rx.Init.PeriphDataAlignment = DMA_PDATAALIGN_BYTE;
 293              		.loc 1 123 32 is_stmt 0 view .LVU88
 294 007a 4FF48063 		mov	r3, #1024
 295 007e 0361     		str	r3, [r0, #16]
 124:Core/Src/usart.c ****     hdma_usart1_rx.Init.MemDataAlignment = DMA_MDATAALIGN_BYTE;
 296              		.loc 1 124 5 is_stmt 1 view .LVU89
 124:Core/Src/usart.c ****     hdma_usart1_rx.Init.MemDataAlignment = DMA_MDATAALIGN_BYTE;
 297              		.loc 1 124 45 is_stmt 0 view .LVU90
 298 0080 4561     		str	r5, [r0, #20]
 125:Core/Src/usart.c ****     hdma_usart1_rx.Init.Mode = DMA_NORMAL;
 299              		.loc 1 125 5 is_stmt 1 view .LVU91
 125:Core/Src/usart.c ****     hdma_usart1_rx.Init.Mode = DMA_NORMAL;
 300              		.loc 1 125 42 is_stmt 0 view .LVU92
 301 0082 8561     		str	r5, [r0, #24]
 126:Core/Src/usart.c ****     hdma_usart1_rx.Init.Priority = DMA_PRIORITY_LOW;
 302              		.loc 1 126 5 is_stmt 1 view .LVU93
 126:Core/Src/usart.c ****     hdma_usart1_rx.Init.Priority = DMA_PRIORITY_LOW;
 303              		.loc 1 126 30 is_stmt 0 view .LVU94
 304 0084 C561     		str	r5, [r0, #28]
 127:Core/Src/usart.c ****     hdma_usart1_rx.Init.FIFOMode = DMA_FIFOMODE_DISABLE;
 305              		.loc 1 127 5 is_stmt 1 view .LVU95
 127:Core/Src/usart.c ****     hdma_usart1_rx.Init.FIFOMode = DMA_FIFOMODE_DISABLE;
 306              		.loc 1 127 34 is_stmt 0 view .LVU96
 307 0086 0562     		str	r5, [r0, #32]
ARM GAS  C:\Users\YKESH~1\AppData\Local\Temp\ccQEKsSE.s 			page 11


 128:Core/Src/usart.c ****     if (HAL_DMA_Init(&hdma_usart1_rx) != HAL_OK)
 308              		.loc 1 128 5 is_stmt 1 view .LVU97
 128:Core/Src/usart.c ****     if (HAL_DMA_Init(&hdma_usart1_rx) != HAL_OK)
 309              		.loc 1 128 34 is_stmt 0 view .LVU98
 310 0088 4562     		str	r5, [r0, #36]
 129:Core/Src/usart.c ****     {
 311              		.loc 1 129 5 is_stmt 1 view .LVU99
 129:Core/Src/usart.c ****     {
 312              		.loc 1 129 9 is_stmt 0 view .LVU100
 313 008a FFF7FEFF 		bl	HAL_DMA_Init
 314              	.LVL9:
 129:Core/Src/usart.c ****     {
 315              		.loc 1 129 8 view .LVU101
 316 008e 18BB     		cbnz	r0, .L23
 317              	.L15:
 134:Core/Src/usart.c **** 
 318              		.loc 1 134 5 is_stmt 1 view .LVU102
 134:Core/Src/usart.c **** 
 319              		.loc 1 134 5 view .LVU103
 320 0090 484B     		ldr	r3, .L27+16
 321 0092 A363     		str	r3, [r4, #56]
 134:Core/Src/usart.c **** 
 322              		.loc 1 134 5 view .LVU104
 323 0094 9C63     		str	r4, [r3, #56]
 134:Core/Src/usart.c **** 
 324              		.loc 1 134 5 view .LVU105
 137:Core/Src/usart.c ****     hdma_usart1_tx.Init.Channel = DMA_CHANNEL_4;
 325              		.loc 1 137 5 view .LVU106
 137:Core/Src/usart.c ****     hdma_usart1_tx.Init.Channel = DMA_CHANNEL_4;
 326              		.loc 1 137 29 is_stmt 0 view .LVU107
 327 0096 4948     		ldr	r0, .L27+24
 328 0098 494B     		ldr	r3, .L27+28
 329 009a 0360     		str	r3, [r0]
 138:Core/Src/usart.c ****     hdma_usart1_tx.Init.Direction = DMA_MEMORY_TO_PERIPH;
 330              		.loc 1 138 5 is_stmt 1 view .LVU108
 138:Core/Src/usart.c ****     hdma_usart1_tx.Init.Direction = DMA_MEMORY_TO_PERIPH;
 331              		.loc 1 138 33 is_stmt 0 view .LVU109
 332 009c 4FF00063 		mov	r3, #134217728
 333 00a0 4360     		str	r3, [r0, #4]
 139:Core/Src/usart.c ****     hdma_usart1_tx.Init.PeriphInc = DMA_PINC_DISABLE;
 334              		.loc 1 139 5 is_stmt 1 view .LVU110
 139:Core/Src/usart.c ****     hdma_usart1_tx.Init.PeriphInc = DMA_PINC_DISABLE;
 335              		.loc 1 139 35 is_stmt 0 view .LVU111
 336 00a2 4023     		movs	r3, #64
 337 00a4 8360     		str	r3, [r0, #8]
 140:Core/Src/usart.c ****     hdma_usart1_tx.Init.MemInc = DMA_MINC_ENABLE;
 338              		.loc 1 140 5 is_stmt 1 view .LVU112
 140:Core/Src/usart.c ****     hdma_usart1_tx.Init.MemInc = DMA_MINC_ENABLE;
 339              		.loc 1 140 35 is_stmt 0 view .LVU113
 340 00a6 0023     		movs	r3, #0
 341 00a8 C360     		str	r3, [r0, #12]
 141:Core/Src/usart.c ****     hdma_usart1_tx.Init.PeriphDataAlignment = DMA_PDATAALIGN_BYTE;
 342              		.loc 1 141 5 is_stmt 1 view .LVU114
 141:Core/Src/usart.c ****     hdma_usart1_tx.Init.PeriphDataAlignment = DMA_PDATAALIGN_BYTE;
 343              		.loc 1 141 32 is_stmt 0 view .LVU115
 344 00aa 4FF48062 		mov	r2, #1024
 345 00ae 0261     		str	r2, [r0, #16]
ARM GAS  C:\Users\YKESH~1\AppData\Local\Temp\ccQEKsSE.s 			page 12


 142:Core/Src/usart.c ****     hdma_usart1_tx.Init.MemDataAlignment = DMA_MDATAALIGN_BYTE;
 346              		.loc 1 142 5 is_stmt 1 view .LVU116
 142:Core/Src/usart.c ****     hdma_usart1_tx.Init.MemDataAlignment = DMA_MDATAALIGN_BYTE;
 347              		.loc 1 142 45 is_stmt 0 view .LVU117
 348 00b0 4361     		str	r3, [r0, #20]
 143:Core/Src/usart.c ****     hdma_usart1_tx.Init.Mode = DMA_NORMAL;
 349              		.loc 1 143 5 is_stmt 1 view .LVU118
 143:Core/Src/usart.c ****     hdma_usart1_tx.Init.Mode = DMA_NORMAL;
 350              		.loc 1 143 42 is_stmt 0 view .LVU119
 351 00b2 8361     		str	r3, [r0, #24]
 144:Core/Src/usart.c ****     hdma_usart1_tx.Init.Priority = DMA_PRIORITY_LOW;
 352              		.loc 1 144 5 is_stmt 1 view .LVU120
 144:Core/Src/usart.c ****     hdma_usart1_tx.Init.Priority = DMA_PRIORITY_LOW;
 353              		.loc 1 144 30 is_stmt 0 view .LVU121
 354 00b4 C361     		str	r3, [r0, #28]
 145:Core/Src/usart.c ****     hdma_usart1_tx.Init.FIFOMode = DMA_FIFOMODE_DISABLE;
 355              		.loc 1 145 5 is_stmt 1 view .LVU122
 145:Core/Src/usart.c ****     hdma_usart1_tx.Init.FIFOMode = DMA_FIFOMODE_DISABLE;
 356              		.loc 1 145 34 is_stmt 0 view .LVU123
 357 00b6 0362     		str	r3, [r0, #32]
 146:Core/Src/usart.c ****     if (HAL_DMA_Init(&hdma_usart1_tx) != HAL_OK)
 358              		.loc 1 146 5 is_stmt 1 view .LVU124
 146:Core/Src/usart.c ****     if (HAL_DMA_Init(&hdma_usart1_tx) != HAL_OK)
 359              		.loc 1 146 34 is_stmt 0 view .LVU125
 360 00b8 4362     		str	r3, [r0, #36]
 147:Core/Src/usart.c ****     {
 361              		.loc 1 147 5 is_stmt 1 view .LVU126
 147:Core/Src/usart.c ****     {
 362              		.loc 1 147 9 is_stmt 0 view .LVU127
 363 00ba FFF7FEFF 		bl	HAL_DMA_Init
 364              	.LVL10:
 147:Core/Src/usart.c ****     {
 365              		.loc 1 147 8 view .LVU128
 366 00be 70B9     		cbnz	r0, .L24
 367              	.L16:
 152:Core/Src/usart.c **** 
 368              		.loc 1 152 5 is_stmt 1 view .LVU129
 152:Core/Src/usart.c **** 
 369              		.loc 1 152 5 view .LVU130
 370 00c0 3E4B     		ldr	r3, .L27+24
 371 00c2 6363     		str	r3, [r4, #52]
 152:Core/Src/usart.c **** 
 372              		.loc 1 152 5 view .LVU131
 373 00c4 9C63     		str	r4, [r3, #56]
 152:Core/Src/usart.c **** 
 374              		.loc 1 152 5 view .LVU132
 155:Core/Src/usart.c ****     HAL_NVIC_EnableIRQ(USART1_IRQn);
 375              		.loc 1 155 5 view .LVU133
 376 00c6 0022     		movs	r2, #0
 377 00c8 0521     		movs	r1, #5
 378 00ca 2520     		movs	r0, #37
 379 00cc FFF7FEFF 		bl	HAL_NVIC_SetPriority
 380              	.LVL11:
 156:Core/Src/usart.c ****   /* USER CODE BEGIN USART1_MspInit 1 */
 381              		.loc 1 156 5 view .LVU134
 382 00d0 2520     		movs	r0, #37
 383 00d2 FFF7FEFF 		bl	HAL_NVIC_EnableIRQ
ARM GAS  C:\Users\YKESH~1\AppData\Local\Temp\ccQEKsSE.s 			page 13


 384              	.LVL12:
 385 00d6 A3E7     		b	.L13
 386              	.L23:
 131:Core/Src/usart.c ****     }
 387              		.loc 1 131 7 view .LVU135
 388 00d8 FFF7FEFF 		bl	Error_Handler
 389              	.LVL13:
 390 00dc D8E7     		b	.L15
 391              	.L24:
 149:Core/Src/usart.c ****     }
 392              		.loc 1 149 7 view .LVU136
 393 00de FFF7FEFF 		bl	Error_Handler
 394              	.LVL14:
 395 00e2 EDE7     		b	.L16
 396              	.LVL15:
 397              	.L22:
 167:Core/Src/usart.c **** 
 398              		.loc 1 167 5 view .LVU137
 399              	.LBB4:
 167:Core/Src/usart.c **** 
 400              		.loc 1 167 5 view .LVU138
 401 00e4 0025     		movs	r5, #0
 402 00e6 0395     		str	r5, [sp, #12]
 167:Core/Src/usart.c **** 
 403              		.loc 1 167 5 view .LVU139
 404 00e8 304B     		ldr	r3, .L27+8
 405 00ea 1A6C     		ldr	r2, [r3, #64]
 406 00ec 42F40032 		orr	r2, r2, #131072
 407 00f0 1A64     		str	r2, [r3, #64]
 167:Core/Src/usart.c **** 
 408              		.loc 1 167 5 view .LVU140
 409 00f2 1A6C     		ldr	r2, [r3, #64]
 410 00f4 02F40032 		and	r2, r2, #131072
 411 00f8 0392     		str	r2, [sp, #12]
 167:Core/Src/usart.c **** 
 412              		.loc 1 167 5 view .LVU141
 413 00fa 039A     		ldr	r2, [sp, #12]
 414              	.LBE4:
 167:Core/Src/usart.c **** 
 415              		.loc 1 167 5 view .LVU142
 169:Core/Src/usart.c ****     /**USART2 GPIO Configuration
 416              		.loc 1 169 5 view .LVU143
 417              	.LBB5:
 169:Core/Src/usart.c ****     /**USART2 GPIO Configuration
 418              		.loc 1 169 5 view .LVU144
 419 00fc 0495     		str	r5, [sp, #16]
 169:Core/Src/usart.c ****     /**USART2 GPIO Configuration
 420              		.loc 1 169 5 view .LVU145
 421 00fe 1A6B     		ldr	r2, [r3, #48]
 422 0100 42F00102 		orr	r2, r2, #1
 423 0104 1A63     		str	r2, [r3, #48]
 169:Core/Src/usart.c ****     /**USART2 GPIO Configuration
 424              		.loc 1 169 5 view .LVU146
 425 0106 1B6B     		ldr	r3, [r3, #48]
 426 0108 03F00103 		and	r3, r3, #1
 427 010c 0493     		str	r3, [sp, #16]
 169:Core/Src/usart.c ****     /**USART2 GPIO Configuration
ARM GAS  C:\Users\YKESH~1\AppData\Local\Temp\ccQEKsSE.s 			page 14


 428              		.loc 1 169 5 view .LVU147
 429 010e 049B     		ldr	r3, [sp, #16]
 430              	.LBE5:
 169:Core/Src/usart.c ****     /**USART2 GPIO Configuration
 431              		.loc 1 169 5 view .LVU148
 174:Core/Src/usart.c ****     GPIO_InitStruct.Mode = GPIO_MODE_AF_PP;
 432              		.loc 1 174 5 view .LVU149
 174:Core/Src/usart.c ****     GPIO_InitStruct.Mode = GPIO_MODE_AF_PP;
 433              		.loc 1 174 25 is_stmt 0 view .LVU150
 434 0110 0C23     		movs	r3, #12
 435 0112 0593     		str	r3, [sp, #20]
 175:Core/Src/usart.c ****     GPIO_InitStruct.Pull = GPIO_NOPULL;
 436              		.loc 1 175 5 is_stmt 1 view .LVU151
 175:Core/Src/usart.c ****     GPIO_InitStruct.Pull = GPIO_NOPULL;
 437              		.loc 1 175 26 is_stmt 0 view .LVU152
 438 0114 0223     		movs	r3, #2
 439 0116 0693     		str	r3, [sp, #24]
 176:Core/Src/usart.c ****     GPIO_InitStruct.Speed = GPIO_SPEED_FREQ_VERY_HIGH;
 440              		.loc 1 176 5 is_stmt 1 view .LVU153
 177:Core/Src/usart.c ****     GPIO_InitStruct.Alternate = GPIO_AF7_USART2;
 441              		.loc 1 177 5 view .LVU154
 177:Core/Src/usart.c ****     GPIO_InitStruct.Alternate = GPIO_AF7_USART2;
 442              		.loc 1 177 27 is_stmt 0 view .LVU155
 443 0118 0323     		movs	r3, #3
 444 011a 0893     		str	r3, [sp, #32]
 178:Core/Src/usart.c ****     HAL_GPIO_Init(GPIOA, &GPIO_InitStruct);
 445              		.loc 1 178 5 is_stmt 1 view .LVU156
 178:Core/Src/usart.c ****     HAL_GPIO_Init(GPIOA, &GPIO_InitStruct);
 446              		.loc 1 178 31 is_stmt 0 view .LVU157
 447 011c 0723     		movs	r3, #7
 448 011e 0993     		str	r3, [sp, #36]
 179:Core/Src/usart.c **** 
 449              		.loc 1 179 5 is_stmt 1 view .LVU158
 450 0120 05A9     		add	r1, sp, #20
 451 0122 2348     		ldr	r0, .L27+12
 452              	.LVL16:
 179:Core/Src/usart.c **** 
 453              		.loc 1 179 5 is_stmt 0 view .LVU159
 454 0124 FFF7FEFF 		bl	HAL_GPIO_Init
 455              	.LVL17:
 183:Core/Src/usart.c ****     hdma_usart2_rx.Init.Channel = DMA_CHANNEL_4;
 456              		.loc 1 183 5 is_stmt 1 view .LVU160
 183:Core/Src/usart.c ****     hdma_usart2_rx.Init.Channel = DMA_CHANNEL_4;
 457              		.loc 1 183 29 is_stmt 0 view .LVU161
 458 0128 2648     		ldr	r0, .L27+32
 459 012a 274B     		ldr	r3, .L27+36
 460 012c 0360     		str	r3, [r0]
 184:Core/Src/usart.c ****     hdma_usart2_rx.Init.Direction = DMA_PERIPH_TO_MEMORY;
 461              		.loc 1 184 5 is_stmt 1 view .LVU162
 184:Core/Src/usart.c ****     hdma_usart2_rx.Init.Direction = DMA_PERIPH_TO_MEMORY;
 462              		.loc 1 184 33 is_stmt 0 view .LVU163
 463 012e 4FF00063 		mov	r3, #134217728
 464 0132 4360     		str	r3, [r0, #4]
 185:Core/Src/usart.c ****     hdma_usart2_rx.Init.PeriphInc = DMA_PINC_DISABLE;
 465              		.loc 1 185 5 is_stmt 1 view .LVU164
 185:Core/Src/usart.c ****     hdma_usart2_rx.Init.PeriphInc = DMA_PINC_DISABLE;
 466              		.loc 1 185 35 is_stmt 0 view .LVU165
ARM GAS  C:\Users\YKESH~1\AppData\Local\Temp\ccQEKsSE.s 			page 15


 467 0134 8560     		str	r5, [r0, #8]
 186:Core/Src/usart.c ****     hdma_usart2_rx.Init.MemInc = DMA_MINC_ENABLE;
 468              		.loc 1 186 5 is_stmt 1 view .LVU166
 186:Core/Src/usart.c ****     hdma_usart2_rx.Init.MemInc = DMA_MINC_ENABLE;
 469              		.loc 1 186 35 is_stmt 0 view .LVU167
 470 0136 C560     		str	r5, [r0, #12]
 187:Core/Src/usart.c ****     hdma_usart2_rx.Init.PeriphDataAlignment = DMA_PDATAALIGN_BYTE;
 471              		.loc 1 187 5 is_stmt 1 view .LVU168
 187:Core/Src/usart.c ****     hdma_usart2_rx.Init.PeriphDataAlignment = DMA_PDATAALIGN_BYTE;
 472              		.loc 1 187 32 is_stmt 0 view .LVU169
 473 0138 4FF48063 		mov	r3, #1024
 474 013c 0361     		str	r3, [r0, #16]
 188:Core/Src/usart.c ****     hdma_usart2_rx.Init.MemDataAlignment = DMA_MDATAALIGN_BYTE;
 475              		.loc 1 188 5 is_stmt 1 view .LVU170
 188:Core/Src/usart.c ****     hdma_usart2_rx.Init.MemDataAlignment = DMA_MDATAALIGN_BYTE;
 476              		.loc 1 188 45 is_stmt 0 view .LVU171
 477 013e 4561     		str	r5, [r0, #20]
 189:Core/Src/usart.c ****     hdma_usart2_rx.Init.Mode = DMA_NORMAL;
 478              		.loc 1 189 5 is_stmt 1 view .LVU172
 189:Core/Src/usart.c ****     hdma_usart2_rx.Init.Mode = DMA_NORMAL;
 479              		.loc 1 189 42 is_stmt 0 view .LVU173
 480 0140 8561     		str	r5, [r0, #24]
 190:Core/Src/usart.c ****     hdma_usart2_rx.Init.Priority = DMA_PRIORITY_LOW;
 481              		.loc 1 190 5 is_stmt 1 view .LVU174
 190:Core/Src/usart.c ****     hdma_usart2_rx.Init.Priority = DMA_PRIORITY_LOW;
 482              		.loc 1 190 30 is_stmt 0 view .LVU175
 483 0142 C561     		str	r5, [r0, #28]
 191:Core/Src/usart.c ****     hdma_usart2_rx.Init.FIFOMode = DMA_FIFOMODE_DISABLE;
 484              		.loc 1 191 5 is_stmt 1 view .LVU176
 191:Core/Src/usart.c ****     hdma_usart2_rx.Init.FIFOMode = DMA_FIFOMODE_DISABLE;
 485              		.loc 1 191 34 is_stmt 0 view .LVU177
 486 0144 0562     		str	r5, [r0, #32]
 192:Core/Src/usart.c ****     if (HAL_DMA_Init(&hdma_usart2_rx) != HAL_OK)
 487              		.loc 1 192 5 is_stmt 1 view .LVU178
 192:Core/Src/usart.c ****     if (HAL_DMA_Init(&hdma_usart2_rx) != HAL_OK)
 488              		.loc 1 192 34 is_stmt 0 view .LVU179
 489 0146 4562     		str	r5, [r0, #36]
 193:Core/Src/usart.c ****     {
 490              		.loc 1 193 5 is_stmt 1 view .LVU180
 193:Core/Src/usart.c ****     {
 491              		.loc 1 193 9 is_stmt 0 view .LVU181
 492 0148 FFF7FEFF 		bl	HAL_DMA_Init
 493              	.LVL18:
 193:Core/Src/usart.c ****     {
 494              		.loc 1 193 8 view .LVU182
 495 014c 18BB     		cbnz	r0, .L25
 496              	.L18:
 198:Core/Src/usart.c **** 
 497              		.loc 1 198 5 is_stmt 1 view .LVU183
 198:Core/Src/usart.c **** 
 498              		.loc 1 198 5 view .LVU184
 499 014e 1D4B     		ldr	r3, .L27+32
 500 0150 A363     		str	r3, [r4, #56]
 198:Core/Src/usart.c **** 
 501              		.loc 1 198 5 view .LVU185
 502 0152 9C63     		str	r4, [r3, #56]
 198:Core/Src/usart.c **** 
ARM GAS  C:\Users\YKESH~1\AppData\Local\Temp\ccQEKsSE.s 			page 16


 503              		.loc 1 198 5 view .LVU186
 201:Core/Src/usart.c ****     hdma_usart2_tx.Init.Channel = DMA_CHANNEL_4;
 504              		.loc 1 201 5 view .LVU187
 201:Core/Src/usart.c ****     hdma_usart2_tx.Init.Channel = DMA_CHANNEL_4;
 505              		.loc 1 201 29 is_stmt 0 view .LVU188
 506 0154 1D48     		ldr	r0, .L27+40
 507 0156 1E4B     		ldr	r3, .L27+44
 508 0158 0360     		str	r3, [r0]
 202:Core/Src/usart.c ****     hdma_usart2_tx.Init.Direction = DMA_MEMORY_TO_PERIPH;
 509              		.loc 1 202 5 is_stmt 1 view .LVU189
 202:Core/Src/usart.c ****     hdma_usart2_tx.Init.Direction = DMA_MEMORY_TO_PERIPH;
 510              		.loc 1 202 33 is_stmt 0 view .LVU190
 511 015a 4FF00063 		mov	r3, #134217728
 512 015e 4360     		str	r3, [r0, #4]
 203:Core/Src/usart.c ****     hdma_usart2_tx.Init.PeriphInc = DMA_PINC_DISABLE;
 513              		.loc 1 203 5 is_stmt 1 view .LVU191
 203:Core/Src/usart.c ****     hdma_usart2_tx.Init.PeriphInc = DMA_PINC_DISABLE;
 514              		.loc 1 203 35 is_stmt 0 view .LVU192
 515 0160 4023     		movs	r3, #64
 516 0162 8360     		str	r3, [r0, #8]
 204:Core/Src/usart.c ****     hdma_usart2_tx.Init.MemInc = DMA_MINC_ENABLE;
 517              		.loc 1 204 5 is_stmt 1 view .LVU193
 204:Core/Src/usart.c ****     hdma_usart2_tx.Init.MemInc = DMA_MINC_ENABLE;
 518              		.loc 1 204 35 is_stmt 0 view .LVU194
 519 0164 0023     		movs	r3, #0
 520 0166 C360     		str	r3, [r0, #12]
 205:Core/Src/usart.c ****     hdma_usart2_tx.Init.PeriphDataAlignment = DMA_PDATAALIGN_BYTE;
 521              		.loc 1 205 5 is_stmt 1 view .LVU195
 205:Core/Src/usart.c ****     hdma_usart2_tx.Init.PeriphDataAlignment = DMA_PDATAALIGN_BYTE;
 522              		.loc 1 205 32 is_stmt 0 view .LVU196
 523 0168 4FF48062 		mov	r2, #1024
 524 016c 0261     		str	r2, [r0, #16]
 206:Core/Src/usart.c ****     hdma_usart2_tx.Init.MemDataAlignment = DMA_MDATAALIGN_BYTE;
 525              		.loc 1 206 5 is_stmt 1 view .LVU197
 206:Core/Src/usart.c ****     hdma_usart2_tx.Init.MemDataAlignment = DMA_MDATAALIGN_BYTE;
 526              		.loc 1 206 45 is_stmt 0 view .LVU198
 527 016e 4361     		str	r3, [r0, #20]
 207:Core/Src/usart.c ****     hdma_usart2_tx.Init.Mode = DMA_NORMAL;
 528              		.loc 1 207 5 is_stmt 1 view .LVU199
 207:Core/Src/usart.c ****     hdma_usart2_tx.Init.Mode = DMA_NORMAL;
 529              		.loc 1 207 42 is_stmt 0 view .LVU200
 530 0170 8361     		str	r3, [r0, #24]
 208:Core/Src/usart.c ****     hdma_usart2_tx.Init.Priority = DMA_PRIORITY_LOW;
 531              		.loc 1 208 5 is_stmt 1 view .LVU201
 208:Core/Src/usart.c ****     hdma_usart2_tx.Init.Priority = DMA_PRIORITY_LOW;
 532              		.loc 1 208 30 is_stmt 0 view .LVU202
 533 0172 C361     		str	r3, [r0, #28]
 209:Core/Src/usart.c ****     hdma_usart2_tx.Init.FIFOMode = DMA_FIFOMODE_DISABLE;
 534              		.loc 1 209 5 is_stmt 1 view .LVU203
 209:Core/Src/usart.c ****     hdma_usart2_tx.Init.FIFOMode = DMA_FIFOMODE_DISABLE;
 535              		.loc 1 209 34 is_stmt 0 view .LVU204
 536 0174 0362     		str	r3, [r0, #32]
 210:Core/Src/usart.c ****     if (HAL_DMA_Init(&hdma_usart2_tx) != HAL_OK)
 537              		.loc 1 210 5 is_stmt 1 view .LVU205
 210:Core/Src/usart.c ****     if (HAL_DMA_Init(&hdma_usart2_tx) != HAL_OK)
 538              		.loc 1 210 34 is_stmt 0 view .LVU206
 539 0176 4362     		str	r3, [r0, #36]
ARM GAS  C:\Users\YKESH~1\AppData\Local\Temp\ccQEKsSE.s 			page 17


 211:Core/Src/usart.c ****     {
 540              		.loc 1 211 5 is_stmt 1 view .LVU207
 211:Core/Src/usart.c ****     {
 541              		.loc 1 211 9 is_stmt 0 view .LVU208
 542 0178 FFF7FEFF 		bl	HAL_DMA_Init
 543              	.LVL19:
 211:Core/Src/usart.c ****     {
 544              		.loc 1 211 8 view .LVU209
 545 017c 70B9     		cbnz	r0, .L26
 546              	.L19:
 216:Core/Src/usart.c **** 
 547              		.loc 1 216 5 is_stmt 1 view .LVU210
 216:Core/Src/usart.c **** 
 548              		.loc 1 216 5 view .LVU211
 549 017e 134B     		ldr	r3, .L27+40
 550 0180 6363     		str	r3, [r4, #52]
 216:Core/Src/usart.c **** 
 551              		.loc 1 216 5 view .LVU212
 552 0182 9C63     		str	r4, [r3, #56]
 216:Core/Src/usart.c **** 
 553              		.loc 1 216 5 view .LVU213
 219:Core/Src/usart.c ****     HAL_NVIC_EnableIRQ(USART2_IRQn);
 554              		.loc 1 219 5 view .LVU214
 555 0184 0022     		movs	r2, #0
 556 0186 0521     		movs	r1, #5
 557 0188 2620     		movs	r0, #38
 558 018a FFF7FEFF 		bl	HAL_NVIC_SetPriority
 559              	.LVL20:
 220:Core/Src/usart.c ****   /* USER CODE BEGIN USART2_MspInit 1 */
 560              		.loc 1 220 5 view .LVU215
 561 018e 2620     		movs	r0, #38
 562 0190 FFF7FEFF 		bl	HAL_NVIC_EnableIRQ
 563              	.LVL21:
 564              		.loc 1 225 1 is_stmt 0 view .LVU216
 565 0194 44E7     		b	.L13
 566              	.L25:
 195:Core/Src/usart.c ****     }
 567              		.loc 1 195 7 is_stmt 1 view .LVU217
 568 0196 FFF7FEFF 		bl	Error_Handler
 569              	.LVL22:
 570 019a D8E7     		b	.L18
 571              	.L26:
 213:Core/Src/usart.c ****     }
 572              		.loc 1 213 7 view .LVU218
 573 019c FFF7FEFF 		bl	Error_Handler
 574              	.LVL23:
 575 01a0 EDE7     		b	.L19
 576              	.L28:
 577 01a2 00BF     		.align	2
 578              	.L27:
 579 01a4 00100140 		.word	1073811456
 580 01a8 00440040 		.word	1073759232
 581 01ac 00380240 		.word	1073887232
 582 01b0 00000240 		.word	1073872896
 583 01b4 00000000 		.word	.LANCHOR2
 584 01b8 40640240 		.word	1073898560
 585 01bc 00000000 		.word	.LANCHOR3
ARM GAS  C:\Users\YKESH~1\AppData\Local\Temp\ccQEKsSE.s 			page 18


 586 01c0 B8640240 		.word	1073898680
 587 01c4 00000000 		.word	.LANCHOR4
 588 01c8 88600240 		.word	1073897608
 589 01cc 00000000 		.word	.LANCHOR5
 590 01d0 A0600240 		.word	1073897632
 591              		.cfi_endproc
 592              	.LFE237:
 594              		.section	.text.HAL_UART_MspDeInit,"ax",%progbits
 595              		.align	1
 596              		.global	HAL_UART_MspDeInit
 597              		.syntax unified
 598              		.thumb
 599              		.thumb_func
 601              	HAL_UART_MspDeInit:
 602              	.LVL24:
 603              	.LFB238:
 226:Core/Src/usart.c **** 
 227:Core/Src/usart.c **** void HAL_UART_MspDeInit(UART_HandleTypeDef* uartHandle)
 228:Core/Src/usart.c **** {
 604              		.loc 1 228 1 view -0
 605              		.cfi_startproc
 606              		@ args = 0, pretend = 0, frame = 0
 607              		@ frame_needed = 0, uses_anonymous_args = 0
 608              		.loc 1 228 1 is_stmt 0 view .LVU220
 609 0000 10B5     		push	{r4, lr}
 610              	.LCFI6:
 611              		.cfi_def_cfa_offset 8
 612              		.cfi_offset 4, -8
 613              		.cfi_offset 14, -4
 614 0002 0446     		mov	r4, r0
 229:Core/Src/usart.c **** 
 230:Core/Src/usart.c ****   if(uartHandle->Instance==USART1)
 615              		.loc 1 230 3 is_stmt 1 view .LVU221
 616              		.loc 1 230 16 is_stmt 0 view .LVU222
 617 0004 0368     		ldr	r3, [r0]
 618              		.loc 1 230 5 view .LVU223
 619 0006 184A     		ldr	r2, .L35
 620 0008 9342     		cmp	r3, r2
 621 000a 03D0     		beq	.L33
 231:Core/Src/usart.c ****   {
 232:Core/Src/usart.c ****   /* USER CODE BEGIN USART1_MspDeInit 0 */
 233:Core/Src/usart.c **** 
 234:Core/Src/usart.c ****   /* USER CODE END USART1_MspDeInit 0 */
 235:Core/Src/usart.c ****     /* Peripheral clock disable */
 236:Core/Src/usart.c ****     __HAL_RCC_USART1_CLK_DISABLE();
 237:Core/Src/usart.c **** 
 238:Core/Src/usart.c ****     /**USART1 GPIO Configuration
 239:Core/Src/usart.c ****     PA9     ------> USART1_TX
 240:Core/Src/usart.c ****     PA10     ------> USART1_RX
 241:Core/Src/usart.c ****     */
 242:Core/Src/usart.c ****     HAL_GPIO_DeInit(GPIOA, GPIO_PIN_9|GPIO_PIN_10);
 243:Core/Src/usart.c **** 
 244:Core/Src/usart.c ****     /* USART1 DMA DeInit */
 245:Core/Src/usart.c ****     HAL_DMA_DeInit(uartHandle->hdmarx);
 246:Core/Src/usart.c ****     HAL_DMA_DeInit(uartHandle->hdmatx);
 247:Core/Src/usart.c **** 
 248:Core/Src/usart.c ****     /* USART1 interrupt Deinit */
ARM GAS  C:\Users\YKESH~1\AppData\Local\Temp\ccQEKsSE.s 			page 19


 249:Core/Src/usart.c ****     HAL_NVIC_DisableIRQ(USART1_IRQn);
 250:Core/Src/usart.c ****   /* USER CODE BEGIN USART1_MspDeInit 1 */
 251:Core/Src/usart.c **** 
 252:Core/Src/usart.c ****   /* USER CODE END USART1_MspDeInit 1 */
 253:Core/Src/usart.c ****   }
 254:Core/Src/usart.c ****   else if(uartHandle->Instance==USART2)
 622              		.loc 1 254 8 is_stmt 1 view .LVU224
 623              		.loc 1 254 10 is_stmt 0 view .LVU225
 624 000c 174A     		ldr	r2, .L35+4
 625 000e 9342     		cmp	r3, r2
 626 0010 15D0     		beq	.L34
 627              	.LVL25:
 628              	.L29:
 255:Core/Src/usart.c ****   {
 256:Core/Src/usart.c ****   /* USER CODE BEGIN USART2_MspDeInit 0 */
 257:Core/Src/usart.c **** 
 258:Core/Src/usart.c ****   /* USER CODE END USART2_MspDeInit 0 */
 259:Core/Src/usart.c ****     /* Peripheral clock disable */
 260:Core/Src/usart.c ****     __HAL_RCC_USART2_CLK_DISABLE();
 261:Core/Src/usart.c **** 
 262:Core/Src/usart.c ****     /**USART2 GPIO Configuration
 263:Core/Src/usart.c ****     PA2     ------> USART2_TX
 264:Core/Src/usart.c ****     PA3     ------> USART2_RX
 265:Core/Src/usart.c ****     */
 266:Core/Src/usart.c ****     HAL_GPIO_DeInit(GPIOA, GPIO_PIN_2|GPIO_PIN_3);
 267:Core/Src/usart.c **** 
 268:Core/Src/usart.c ****     /* USART2 DMA DeInit */
 269:Core/Src/usart.c ****     HAL_DMA_DeInit(uartHandle->hdmarx);
 270:Core/Src/usart.c ****     HAL_DMA_DeInit(uartHandle->hdmatx);
 271:Core/Src/usart.c **** 
 272:Core/Src/usart.c ****     /* USART2 interrupt Deinit */
 273:Core/Src/usart.c ****     HAL_NVIC_DisableIRQ(USART2_IRQn);
 274:Core/Src/usart.c ****   /* USER CODE BEGIN USART2_MspDeInit 1 */
 275:Core/Src/usart.c **** 
 276:Core/Src/usart.c ****   /* USER CODE END USART2_MspDeInit 1 */
 277:Core/Src/usart.c ****   }
 278:Core/Src/usart.c **** }
 629              		.loc 1 278 1 view .LVU226
 630 0012 10BD     		pop	{r4, pc}
 631              	.LVL26:
 632              	.L33:
 236:Core/Src/usart.c **** 
 633              		.loc 1 236 5 is_stmt 1 view .LVU227
 634 0014 02F59432 		add	r2, r2, #75776
 635 0018 536C     		ldr	r3, [r2, #68]
 636 001a 23F01003 		bic	r3, r3, #16
 637 001e 5364     		str	r3, [r2, #68]
 242:Core/Src/usart.c **** 
 638              		.loc 1 242 5 view .LVU228
 639 0020 4FF4C061 		mov	r1, #1536
 640 0024 1248     		ldr	r0, .L35+8
 641              	.LVL27:
 242:Core/Src/usart.c **** 
 642              		.loc 1 242 5 is_stmt 0 view .LVU229
 643 0026 FFF7FEFF 		bl	HAL_GPIO_DeInit
 644              	.LVL28:
 245:Core/Src/usart.c ****     HAL_DMA_DeInit(uartHandle->hdmatx);
ARM GAS  C:\Users\YKESH~1\AppData\Local\Temp\ccQEKsSE.s 			page 20


 645              		.loc 1 245 5 is_stmt 1 view .LVU230
 646 002a A06B     		ldr	r0, [r4, #56]
 647 002c FFF7FEFF 		bl	HAL_DMA_DeInit
 648              	.LVL29:
 246:Core/Src/usart.c **** 
 649              		.loc 1 246 5 view .LVU231
 650 0030 606B     		ldr	r0, [r4, #52]
 651 0032 FFF7FEFF 		bl	HAL_DMA_DeInit
 652              	.LVL30:
 249:Core/Src/usart.c ****   /* USER CODE BEGIN USART1_MspDeInit 1 */
 653              		.loc 1 249 5 view .LVU232
 654 0036 2520     		movs	r0, #37
 655 0038 FFF7FEFF 		bl	HAL_NVIC_DisableIRQ
 656              	.LVL31:
 657 003c E9E7     		b	.L29
 658              	.LVL32:
 659              	.L34:
 260:Core/Src/usart.c **** 
 660              		.loc 1 260 5 view .LVU233
 661 003e 02F5FA32 		add	r2, r2, #128000
 662 0042 136C     		ldr	r3, [r2, #64]
 663 0044 23F40033 		bic	r3, r3, #131072
 664 0048 1364     		str	r3, [r2, #64]
 266:Core/Src/usart.c **** 
 665              		.loc 1 266 5 view .LVU234
 666 004a 0C21     		movs	r1, #12
 667 004c 0848     		ldr	r0, .L35+8
 668              	.LVL33:
 266:Core/Src/usart.c **** 
 669              		.loc 1 266 5 is_stmt 0 view .LVU235
 670 004e FFF7FEFF 		bl	HAL_GPIO_DeInit
 671              	.LVL34:
 269:Core/Src/usart.c ****     HAL_DMA_DeInit(uartHandle->hdmatx);
 672              		.loc 1 269 5 is_stmt 1 view .LVU236
 673 0052 A06B     		ldr	r0, [r4, #56]
 674 0054 FFF7FEFF 		bl	HAL_DMA_DeInit
 675              	.LVL35:
 270:Core/Src/usart.c **** 
 676              		.loc 1 270 5 view .LVU237
 677 0058 606B     		ldr	r0, [r4, #52]
 678 005a FFF7FEFF 		bl	HAL_DMA_DeInit
 679              	.LVL36:
 273:Core/Src/usart.c ****   /* USER CODE BEGIN USART2_MspDeInit 1 */
 680              		.loc 1 273 5 view .LVU238
 681 005e 2620     		movs	r0, #38
 682 0060 FFF7FEFF 		bl	HAL_NVIC_DisableIRQ
 683              	.LVL37:
 684              		.loc 1 278 1 is_stmt 0 view .LVU239
 685 0064 D5E7     		b	.L29
 686              	.L36:
 687 0066 00BF     		.align	2
 688              	.L35:
 689 0068 00100140 		.word	1073811456
 690 006c 00440040 		.word	1073759232
 691 0070 00000240 		.word	1073872896
 692              		.cfi_endproc
 693              	.LFE238:
ARM GAS  C:\Users\YKESH~1\AppData\Local\Temp\ccQEKsSE.s 			page 21


 695              		.global	hdma_usart2_tx
 696              		.global	hdma_usart2_rx
 697              		.global	hdma_usart1_tx
 698              		.global	hdma_usart1_rx
 699              		.global	huart2
 700              		.global	huart1
 701              		.section	.bss.hdma_usart1_rx,"aw",%nobits
 702              		.align	2
 703              		.set	.LANCHOR2,. + 0
 706              	hdma_usart1_rx:
 707 0000 00000000 		.space	96
 707      00000000 
 707      00000000 
 707      00000000 
 707      00000000 
 708              		.section	.bss.hdma_usart1_tx,"aw",%nobits
 709              		.align	2
 710              		.set	.LANCHOR3,. + 0
 713              	hdma_usart1_tx:
 714 0000 00000000 		.space	96
 714      00000000 
 714      00000000 
 714      00000000 
 714      00000000 
 715              		.section	.bss.hdma_usart2_rx,"aw",%nobits
 716              		.align	2
 717              		.set	.LANCHOR4,. + 0
 720              	hdma_usart2_rx:
 721 0000 00000000 		.space	96
 721      00000000 
 721      00000000 
 721      00000000 
 721      00000000 
 722              		.section	.bss.hdma_usart2_tx,"aw",%nobits
 723              		.align	2
 724              		.set	.LANCHOR5,. + 0
 727              	hdma_usart2_tx:
 728 0000 00000000 		.space	96
 728      00000000 
 728      00000000 
 728      00000000 
 728      00000000 
 729              		.section	.bss.huart1,"aw",%nobits
 730              		.align	2
 731              		.set	.LANCHOR0,. + 0
 734              	huart1:
 735 0000 00000000 		.space	68
 735      00000000 
 735      00000000 
 735      00000000 
 735      00000000 
 736              		.section	.bss.huart2,"aw",%nobits
 737              		.align	2
 738              		.set	.LANCHOR1,. + 0
 741              	huart2:
 742 0000 00000000 		.space	68
 742      00000000 
ARM GAS  C:\Users\YKESH~1\AppData\Local\Temp\ccQEKsSE.s 			page 22


 742      00000000 
 742      00000000 
 742      00000000 
 743              		.text
 744              	.Letext0:
 745              		.file 2 "d:\\program files\\gnu arm embedded toolchain\\10 2021.10\\arm-none-eabi\\include\\machin
 746              		.file 3 "d:\\program files\\gnu arm embedded toolchain\\10 2021.10\\arm-none-eabi\\include\\sys\\_
 747              		.file 4 "Drivers/CMSIS/Device/ST/STM32F4xx/Include/stm32f407xx.h"
 748              		.file 5 "Drivers/STM32F4xx_HAL_Driver/Inc/stm32f4xx_hal_def.h"
 749              		.file 6 "Drivers/STM32F4xx_HAL_Driver/Inc/stm32f4xx_hal_gpio.h"
 750              		.file 7 "Drivers/STM32F4xx_HAL_Driver/Inc/stm32f4xx_hal_dma.h"
 751              		.file 8 "Drivers/STM32F4xx_HAL_Driver/Inc/stm32f4xx_hal_uart.h"
 752              		.file 9 "Core/Inc/usart.h"
 753              		.file 10 "Drivers/STM32F4xx_HAL_Driver/Inc/stm32f4xx_hal_cortex.h"
 754              		.file 11 "Core/Inc/main.h"
ARM GAS  C:\Users\YKESH~1\AppData\Local\Temp\ccQEKsSE.s 			page 23

