ARM GAS  C:\Users\YKESH~1\AppData\Local\Temp\ccALT22H.s 			page 1


   1              		.cpu cortex-m4
   2              		.arch armv7e-m
   3              		.fpu fpv4-sp-d16
   4              		.eabi_attribute 27, 1
   5              		.eabi_attribute 28, 1
   6              		.eabi_attribute 20, 1
   7              		.eabi_attribute 21, 1
   8              		.eabi_attribute 23, 3
   9              		.eabi_attribute 24, 1
  10              		.eabi_attribute 25, 1
  11              		.eabi_attribute 26, 1
  12              		.eabi_attribute 30, 1
  13              		.eabi_attribute 34, 1
  14              		.eabi_attribute 18, 4
  15              		.file	"UV_sensor.c"
  16              		.text
  17              	.Ltext0:
  18              		.cfi_sections	.debug_frame
  19              		.section	.text.UV_arr_Create,"ax",%progbits
  20              		.align	1
  21              		.global	UV_arr_Create
  22              		.syntax unified
  23              		.thumb
  24              		.thumb_func
  26              	UV_arr_Create:
  27              	.LVL0:
  28              	.LFB235:
  29              		.file 1 "Module/UV_sensor/UV_sensor.c"
   1:Module/UV_sensor/UV_sensor.c **** #include "UV_sensor.h"
   2:Module/UV_sensor/UV_sensor.c **** #include "stdlib.h"
   3:Module/UV_sensor/UV_sensor.c **** #include "instance.h"
   4:Module/UV_sensor/UV_sensor.c **** 
   5:Module/UV_sensor/UV_sensor.c **** UV_data my_UV_data;
   6:Module/UV_sensor/UV_sensor.c **** 
   7:Module/UV_sensor/UV_sensor.c **** void UV_arr_Create(UV_data* data)
   8:Module/UV_sensor/UV_sensor.c **** {
  30              		.loc 1 8 1 view -0
  31              		.cfi_startproc
  32              		@ args = 0, pretend = 0, frame = 0
  33              		@ frame_needed = 0, uses_anonymous_args = 0
  34              		.loc 1 8 1 is_stmt 0 view .LVU1
  35 0000 10B5     		push	{r4, lr}
  36              	.LCFI0:
  37              		.cfi_def_cfa_offset 8
  38              		.cfi_offset 4, -8
  39              		.cfi_offset 14, -4
  40 0002 0446     		mov	r4, r0
   9:Module/UV_sensor/UV_sensor.c ****     data->UV_pdata = (UV_index*)malloc(data->num * sizeof(UV_index));
  41              		.loc 1 9 5 is_stmt 1 view .LVU2
  42              		.loc 1 9 33 is_stmt 0 view .LVU3
  43 0004 8088     		ldrh	r0, [r0, #4]	@ unaligned
  44              	.LVL1:
  45              		.loc 1 9 33 view .LVU4
  46 0006 FFF7FEFF 		bl	malloc
  47              	.LVL2:
  48              		.loc 1 9 20 view .LVU5
  49 000a 2060     		str	r0, [r4]	@ unaligned
ARM GAS  C:\Users\YKESH~1\AppData\Local\Temp\ccALT22H.s 			page 2


  10:Module/UV_sensor/UV_sensor.c **** }
  50              		.loc 1 10 1 view .LVU6
  51 000c 10BD     		pop	{r4, pc}
  52              		.loc 1 10 1 view .LVU7
  53              		.cfi_endproc
  54              	.LFE235:
  56              		.section	.text.judge_index,"ax",%progbits
  57              		.align	1
  58              		.global	judge_index
  59              		.syntax unified
  60              		.thumb
  61              		.thumb_func
  63              	judge_index:
  64              	.LVL3:
  65              	.LFB236:
  11:Module/UV_sensor/UV_sensor.c **** 
  12:Module/UV_sensor/UV_sensor.c **** UV_index judge_index(uint16_t v_now)
  13:Module/UV_sensor/UV_sensor.c **** {
  66              		.loc 1 13 1 is_stmt 1 view -0
  67              		.cfi_startproc
  68              		@ args = 0, pretend = 0, frame = 0
  69              		@ frame_needed = 0, uses_anonymous_args = 0
  70              		@ link register save eliminated.
  14:Module/UV_sensor/UV_sensor.c ****     UV_index tem_index;
  71              		.loc 1 14 5 view .LVU9
  15:Module/UV_sensor/UV_sensor.c ****     if (v_now < 50)tem_index = lv_0;
  72              		.loc 1 15 5 view .LVU10
  73              		.loc 1 15 8 is_stmt 0 view .LVU11
  74 0000 3128     		cmp	r0, #49
  75 0002 25D9     		bls	.L5
  16:Module/UV_sensor/UV_sensor.c ****     else if (v_now < 227)tem_index = lv_1;
  76              		.loc 1 16 10 is_stmt 1 view .LVU12
  77              		.loc 1 16 13 is_stmt 0 view .LVU13
  78 0004 E228     		cmp	r0, #226
  79 0006 25D9     		bls	.L6
  17:Module/UV_sensor/UV_sensor.c ****     else if (v_now < 318)tem_index = lv_2;
  80              		.loc 1 17 10 is_stmt 1 view .LVU14
  81              		.loc 1 17 13 is_stmt 0 view .LVU15
  82 0008 B0F59F7F 		cmp	r0, #318
  83 000c 24D3     		bcc	.L7
  18:Module/UV_sensor/UV_sensor.c ****     else if (v_now < 408)tem_index = lv_3;
  84              		.loc 1 18 10 is_stmt 1 view .LVU16
  85              		.loc 1 18 13 is_stmt 0 view .LVU17
  86 000e B0F5CC7F 		cmp	r0, #408
  87 0012 23D3     		bcc	.L8
  19:Module/UV_sensor/UV_sensor.c ****     else if (v_now < 503)tem_index = lv_4;
  88              		.loc 1 19 10 is_stmt 1 view .LVU18
  89              		.loc 1 19 13 is_stmt 0 view .LVU19
  90 0014 B0F5FB7F 		cmp	r0, #502
  91 0018 22D9     		bls	.L9
  20:Module/UV_sensor/UV_sensor.c ****     else if (v_now < 606)tem_index = lv_5;
  92              		.loc 1 20 10 is_stmt 1 view .LVU20
  93              		.loc 1 20 13 is_stmt 0 view .LVU21
  94 001a 40F25D23 		movw	r3, #605
  95 001e 9842     		cmp	r0, r3
  96 0020 20D9     		bls	.L10
  21:Module/UV_sensor/UV_sensor.c ****     else if (v_now < 696)tem_index = lv_6;
ARM GAS  C:\Users\YKESH~1\AppData\Local\Temp\ccALT22H.s 			page 3


  97              		.loc 1 21 10 is_stmt 1 view .LVU22
  98              		.loc 1 21 13 is_stmt 0 view .LVU23
  99 0022 B0F52E7F 		cmp	r0, #696
 100 0026 1FD3     		bcc	.L11
  22:Module/UV_sensor/UV_sensor.c ****     else if (v_now < 795)tem_index = lv_7;
 101              		.loc 1 22 10 is_stmt 1 view .LVU24
 102              		.loc 1 22 13 is_stmt 0 view .LVU25
 103 0028 40F21A33 		movw	r3, #794
 104 002c 9842     		cmp	r0, r3
 105 002e 1DD9     		bls	.L12
  23:Module/UV_sensor/UV_sensor.c ****     else if (v_now < 881)tem_index = lv_8;
 106              		.loc 1 23 10 is_stmt 1 view .LVU26
 107              		.loc 1 23 13 is_stmt 0 view .LVU27
 108 0030 B0F55C7F 		cmp	r0, #880
 109 0034 1CD9     		bls	.L13
  24:Module/UV_sensor/UV_sensor.c ****     else if (v_now < 976)tem_index = lv_9;
 110              		.loc 1 24 10 is_stmt 1 view .LVU28
 111              		.loc 1 24 13 is_stmt 0 view .LVU29
 112 0036 B0F5747F 		cmp	r0, #976
 113 003a 1BD3     		bcc	.L14
  25:Module/UV_sensor/UV_sensor.c ****     else if (v_now < 1079)tem_index = lv_10;
 114              		.loc 1 25 10 is_stmt 1 view .LVU30
 115              		.loc 1 25 13 is_stmt 0 view .LVU31
 116 003c 40F23643 		movw	r3, #1078
 117 0040 9842     		cmp	r0, r3
 118 0042 19D9     		bls	.L15
  26:Module/UV_sensor/UV_sensor.c ****     else if (v_now < 1170)tem_index = lv_11;
 119              		.loc 1 26 10 is_stmt 1 view .LVU32
 120              		.loc 1 26 13 is_stmt 0 view .LVU33
 121 0044 40F29143 		movw	r3, #1169
 122 0048 9842     		cmp	r0, r3
 123 004a 17D8     		bhi	.L16
 124              		.loc 1 26 37 view .LVU34
 125 004c 0B20     		movs	r0, #11
 126              	.LVL4:
 127              		.loc 1 26 37 view .LVU35
 128 004e 7047     		bx	lr
 129              	.LVL5:
 130              	.L5:
  15:Module/UV_sensor/UV_sensor.c ****     else if (v_now < 227)tem_index = lv_1;
 131              		.loc 1 15 30 view .LVU36
 132 0050 0020     		movs	r0, #0
 133              	.LVL6:
  15:Module/UV_sensor/UV_sensor.c ****     else if (v_now < 227)tem_index = lv_1;
 134              		.loc 1 15 30 view .LVU37
 135 0052 7047     		bx	lr
 136              	.LVL7:
 137              	.L6:
  16:Module/UV_sensor/UV_sensor.c ****     else if (v_now < 318)tem_index = lv_2;
 138              		.loc 1 16 36 view .LVU38
 139 0054 0120     		movs	r0, #1
 140              	.LVL8:
  16:Module/UV_sensor/UV_sensor.c ****     else if (v_now < 318)tem_index = lv_2;
 141              		.loc 1 16 36 view .LVU39
 142 0056 7047     		bx	lr
 143              	.LVL9:
 144              	.L7:
ARM GAS  C:\Users\YKESH~1\AppData\Local\Temp\ccALT22H.s 			page 4


  17:Module/UV_sensor/UV_sensor.c ****     else if (v_now < 408)tem_index = lv_3;
 145              		.loc 1 17 36 view .LVU40
 146 0058 0220     		movs	r0, #2
 147              	.LVL10:
  17:Module/UV_sensor/UV_sensor.c ****     else if (v_now < 408)tem_index = lv_3;
 148              		.loc 1 17 36 view .LVU41
 149 005a 7047     		bx	lr
 150              	.LVL11:
 151              	.L8:
  18:Module/UV_sensor/UV_sensor.c ****     else if (v_now < 503)tem_index = lv_4;
 152              		.loc 1 18 36 view .LVU42
 153 005c 0320     		movs	r0, #3
 154              	.LVL12:
  18:Module/UV_sensor/UV_sensor.c ****     else if (v_now < 503)tem_index = lv_4;
 155              		.loc 1 18 36 view .LVU43
 156 005e 7047     		bx	lr
 157              	.LVL13:
 158              	.L9:
  19:Module/UV_sensor/UV_sensor.c ****     else if (v_now < 606)tem_index = lv_5;
 159              		.loc 1 19 36 view .LVU44
 160 0060 0420     		movs	r0, #4
 161              	.LVL14:
  19:Module/UV_sensor/UV_sensor.c ****     else if (v_now < 606)tem_index = lv_5;
 162              		.loc 1 19 36 view .LVU45
 163 0062 7047     		bx	lr
 164              	.LVL15:
 165              	.L10:
  20:Module/UV_sensor/UV_sensor.c ****     else if (v_now < 696)tem_index = lv_6;
 166              		.loc 1 20 36 view .LVU46
 167 0064 0520     		movs	r0, #5
 168              	.LVL16:
  20:Module/UV_sensor/UV_sensor.c ****     else if (v_now < 696)tem_index = lv_6;
 169              		.loc 1 20 36 view .LVU47
 170 0066 7047     		bx	lr
 171              	.LVL17:
 172              	.L11:
  21:Module/UV_sensor/UV_sensor.c ****     else if (v_now < 795)tem_index = lv_7;
 173              		.loc 1 21 36 view .LVU48
 174 0068 0620     		movs	r0, #6
 175              	.LVL18:
  21:Module/UV_sensor/UV_sensor.c ****     else if (v_now < 795)tem_index = lv_7;
 176              		.loc 1 21 36 view .LVU49
 177 006a 7047     		bx	lr
 178              	.LVL19:
 179              	.L12:
  22:Module/UV_sensor/UV_sensor.c ****     else if (v_now < 881)tem_index = lv_8;
 180              		.loc 1 22 36 view .LVU50
 181 006c 0720     		movs	r0, #7
 182              	.LVL20:
  22:Module/UV_sensor/UV_sensor.c ****     else if (v_now < 881)tem_index = lv_8;
 183              		.loc 1 22 36 view .LVU51
 184 006e 7047     		bx	lr
 185              	.LVL21:
 186              	.L13:
  23:Module/UV_sensor/UV_sensor.c ****     else if (v_now < 976)tem_index = lv_9;
 187              		.loc 1 23 36 view .LVU52
 188 0070 0820     		movs	r0, #8
ARM GAS  C:\Users\YKESH~1\AppData\Local\Temp\ccALT22H.s 			page 5


 189              	.LVL22:
  23:Module/UV_sensor/UV_sensor.c ****     else if (v_now < 976)tem_index = lv_9;
 190              		.loc 1 23 36 view .LVU53
 191 0072 7047     		bx	lr
 192              	.LVL23:
 193              	.L14:
  24:Module/UV_sensor/UV_sensor.c ****     else if (v_now < 1079)tem_index = lv_10;
 194              		.loc 1 24 36 view .LVU54
 195 0074 0920     		movs	r0, #9
 196              	.LVL24:
  24:Module/UV_sensor/UV_sensor.c ****     else if (v_now < 1079)tem_index = lv_10;
 197              		.loc 1 24 36 view .LVU55
 198 0076 7047     		bx	lr
 199              	.LVL25:
 200              	.L15:
  25:Module/UV_sensor/UV_sensor.c ****     else if (v_now < 1170)tem_index = lv_11;
 201              		.loc 1 25 37 view .LVU56
 202 0078 0A20     		movs	r0, #10
 203              	.LVL26:
  25:Module/UV_sensor/UV_sensor.c ****     else if (v_now < 1170)tem_index = lv_11;
 204              		.loc 1 25 37 view .LVU57
 205 007a 7047     		bx	lr
 206              	.LVL27:
 207              	.L16:
  27:Module/UV_sensor/UV_sensor.c ****     else tem_index = lv_11pls;
 208              		.loc 1 27 20 view .LVU58
 209 007c 0C20     		movs	r0, #12
 210              	.LVL28:
  28:Module/UV_sensor/UV_sensor.c ****     return tem_index;
 211              		.loc 1 28 5 is_stmt 1 view .LVU59
  29:Module/UV_sensor/UV_sensor.c **** }
 212              		.loc 1 29 1 is_stmt 0 view .LVU60
 213 007e 7047     		bx	lr
 214              		.cfi_endproc
 215              	.LFE236:
 217              		.section	.text.UV_sensor_data_handle,"ax",%progbits
 218              		.align	1
 219              		.global	UV_sensor_data_handle
 220              		.syntax unified
 221              		.thumb
 222              		.thumb_func
 224              	UV_sensor_data_handle:
 225              	.LVL29:
 226              	.LFB237:
  30:Module/UV_sensor/UV_sensor.c **** 
  31:Module/UV_sensor/UV_sensor.c **** error_handle_type UV_sensor_data_handle(uint16_t* adc_data, UV_data* data_obj)
  32:Module/UV_sensor/UV_sensor.c **** {
 227              		.loc 1 32 1 is_stmt 1 view -0
 228              		.cfi_startproc
 229              		@ args = 0, pretend = 0, frame = 0
 230              		@ frame_needed = 0, uses_anonymous_args = 0
 231              		.loc 1 32 1 is_stmt 0 view .LVU62
 232 0000 2DE9F84F 		push	{r3, r4, r5, r6, r7, r8, r9, r10, fp, lr}
 233              	.LCFI1:
 234              		.cfi_def_cfa_offset 40
 235              		.cfi_offset 3, -40
 236              		.cfi_offset 4, -36
ARM GAS  C:\Users\YKESH~1\AppData\Local\Temp\ccALT22H.s 			page 6


 237              		.cfi_offset 5, -32
 238              		.cfi_offset 6, -28
 239              		.cfi_offset 7, -24
 240              		.cfi_offset 8, -20
 241              		.cfi_offset 9, -16
 242              		.cfi_offset 10, -12
 243              		.cfi_offset 11, -8
 244              		.cfi_offset 14, -4
 245 0004 8046     		mov	r8, r0
 246 0006 8B46     		mov	fp, r1
  33:Module/UV_sensor/UV_sensor.c ****     uint16_t i = 0;
 247              		.loc 1 33 5 is_stmt 1 view .LVU63
 248              	.LVL30:
  34:Module/UV_sensor/UV_sensor.c ****     uint16_t num = data_obj->num;
 249              		.loc 1 34 5 view .LVU64
 250              		.loc 1 34 14 is_stmt 0 view .LVU65
 251 0008 B1F80490 		ldrh	r9, [r1, #4]	@ unaligned
 252              	.LVL31:
  35:Module/UV_sensor/UV_sensor.c ****     uint32_t sum_v = 0;
 253              		.loc 1 35 5 is_stmt 1 view .LVU66
  36:Module/UV_sensor/UV_sensor.c ****     UV_index* pdata = data_obj->UV_pdata;
 254              		.loc 1 36 5 view .LVU67
 255              		.loc 1 36 15 is_stmt 0 view .LVU68
 256 000c D1F800A0 		ldr	r10, [r1]	@ unaligned
 257              	.LVL32:
  37:Module/UV_sensor/UV_sensor.c **** 
  38:Module/UV_sensor/UV_sensor.c ****     for (i = 0; i < num; i++){
 258              		.loc 1 38 5 is_stmt 1 view .LVU69
  35:Module/UV_sensor/UV_sensor.c ****     UV_index* pdata = data_obj->UV_pdata;
 259              		.loc 1 35 14 is_stmt 0 view .LVU70
 260 0010 0026     		movs	r6, #0
 261              		.loc 1 38 12 view .LVU71
 262 0012 3446     		mov	r4, r6
 263              		.loc 1 38 5 view .LVU72
 264 0014 0FE0     		b	.L18
 265              	.LVL33:
 266              	.L20:
 267              	.LBB2:
  39:Module/UV_sensor/UV_sensor.c ****         uint16_t v_now = VCC_ref * adc_data[i] / 4096;
 268              		.loc 1 39 9 is_stmt 1 discriminator 3 view .LVU73
 269              		.loc 1 39 44 is_stmt 0 discriminator 3 view .LVU74
 270 0016 38F81450 		ldrh	r5, [r8, r4, lsl #1]
 271              		.loc 1 39 34 discriminator 3 view .LVU75
 272 001a 40F6E443 		movw	r3, #3300
 273 001e 03FB05F5 		mul	r5, r3, r5
 274              		.loc 1 39 18 discriminator 3 view .LVU76
 275 0022 C5F30F35 		ubfx	r5, r5, #12, #16
 276              	.LVL34:
  40:Module/UV_sensor/UV_sensor.c ****         pdata[i] = judge_index(v_now);
 277              		.loc 1 40 9 is_stmt 1 discriminator 3 view .LVU77
 278              		.loc 1 40 20 is_stmt 0 discriminator 3 view .LVU78
 279 0026 2846     		mov	r0, r5
 280 0028 FFF7FEFF 		bl	judge_index
 281              	.LVL35:
 282              		.loc 1 40 18 discriminator 3 view .LVU79
 283 002c 0AF80400 		strb	r0, [r10, r4]
  41:Module/UV_sensor/UV_sensor.c ****         sum_v += v_now;
ARM GAS  C:\Users\YKESH~1\AppData\Local\Temp\ccALT22H.s 			page 7


 284              		.loc 1 41 9 is_stmt 1 discriminator 3 view .LVU80
 285              		.loc 1 41 15 is_stmt 0 discriminator 3 view .LVU81
 286 0030 2E44     		add	r6, r6, r5
 287              	.LVL36:
 288              		.loc 1 41 15 discriminator 3 view .LVU82
 289              	.LBE2:
  38:Module/UV_sensor/UV_sensor.c ****         uint16_t v_now = VCC_ref * adc_data[i] / 4096;
 290              		.loc 1 38 26 is_stmt 1 discriminator 3 view .LVU83
  38:Module/UV_sensor/UV_sensor.c ****         uint16_t v_now = VCC_ref * adc_data[i] / 4096;
 291              		.loc 1 38 27 is_stmt 0 discriminator 3 view .LVU84
 292 0032 0134     		adds	r4, r4, #1
 293              	.LVL37:
  38:Module/UV_sensor/UV_sensor.c ****         uint16_t v_now = VCC_ref * adc_data[i] / 4096;
 294              		.loc 1 38 27 discriminator 3 view .LVU85
 295 0034 A4B2     		uxth	r4, r4
 296              	.LVL38:
 297              	.L18:
  38:Module/UV_sensor/UV_sensor.c ****         uint16_t v_now = VCC_ref * adc_data[i] / 4096;
 298              		.loc 1 38 17 is_stmt 1 discriminator 1 view .LVU86
  38:Module/UV_sensor/UV_sensor.c ****         uint16_t v_now = VCC_ref * adc_data[i] / 4096;
 299              		.loc 1 38 5 is_stmt 0 discriminator 1 view .LVU87
 300 0036 4C45     		cmp	r4, r9
 301 0038 EDD3     		bcc	.L20
  42:Module/UV_sensor/UV_sensor.c ****     }
  43:Module/UV_sensor/UV_sensor.c ****     data_obj->aver_lv = judge_index(sum_v);
 302              		.loc 1 43 5 is_stmt 1 view .LVU88
 303              		.loc 1 43 25 is_stmt 0 view .LVU89
 304 003a B0B2     		uxth	r0, r6
 305 003c FFF7FEFF 		bl	judge_index
 306              	.LVL39:
 307              		.loc 1 43 23 view .LVU90
 308 0040 8BF80600 		strb	r0, [fp, #6]
  44:Module/UV_sensor/UV_sensor.c **** 
  45:Module/UV_sensor/UV_sensor.c ****     return normal;
 309              		.loc 1 45 5 is_stmt 1 view .LVU91
  46:Module/UV_sensor/UV_sensor.c **** }
 310              		.loc 1 46 1 is_stmt 0 view .LVU92
 311 0044 0020     		movs	r0, #0
 312 0046 BDE8F88F 		pop	{r3, r4, r5, r6, r7, r8, r9, r10, fp, pc}
 313              		.loc 1 46 1 view .LVU93
 314              		.cfi_endproc
 315              	.LFE237:
 317              		.section	.text.UV_sensor_Init,"ax",%progbits
 318              		.align	1
 319              		.global	UV_sensor_Init
 320              		.syntax unified
 321              		.thumb
 322              		.thumb_func
 324              	UV_sensor_Init:
 325              	.LFB238:
  47:Module/UV_sensor/UV_sensor.c **** 
  48:Module/UV_sensor/UV_sensor.c **** void UV_sensor_Init(void)
  49:Module/UV_sensor/UV_sensor.c **** {
 326              		.loc 1 49 1 is_stmt 1 view -0
 327              		.cfi_startproc
 328              		@ args = 0, pretend = 0, frame = 0
 329              		@ frame_needed = 0, uses_anonymous_args = 0
ARM GAS  C:\Users\YKESH~1\AppData\Local\Temp\ccALT22H.s 			page 8


 330 0000 08B5     		push	{r3, lr}
 331              	.LCFI2:
 332              		.cfi_def_cfa_offset 8
 333              		.cfi_offset 3, -8
 334              		.cfi_offset 14, -4
  50:Module/UV_sensor/UV_sensor.c ****     database.UV_data_p = &my_UV_data;
 335              		.loc 1 50 5 view .LVU95
 336              		.loc 1 50 24 is_stmt 0 view .LVU96
 337 0002 0348     		ldr	r0, .L24
 338 0004 034B     		ldr	r3, .L24+4
 339 0006 5860     		str	r0, [r3, #4]
  51:Module/UV_sensor/UV_sensor.c ****     UV_arr_Create(&my_UV_data);
 340              		.loc 1 51 5 is_stmt 1 view .LVU97
 341 0008 FFF7FEFF 		bl	UV_arr_Create
 342              	.LVL40:
  52:Module/UV_sensor/UV_sensor.c **** }...
 343              		.loc 1 52 1 is_stmt 0 view .LVU98
 344 000c 08BD     		pop	{r3, pc}
 345              	.L25:
 346 000e 00BF     		.align	2
 347              	.L24:
 348 0010 00000000 		.word	.LANCHOR0
 349 0014 00000000 		.word	database
 350              		.cfi_endproc
 351              	.LFE238:
 353              		.global	my_UV_data
 354              		.section	.bss.my_UV_data,"aw",%nobits
 355              		.align	2
 356              		.set	.LANCHOR0,. + 0
 359              	my_UV_data:
 360 0000 00000000 		.space	7
 360      000000
 361              		.text
 362              	.Letext0:
 363              		.file 2 "d:\\program files\\gnu arm embedded toolchain\\10 2021.10\\arm-none-eabi\\include\\machin
 364              		.file 3 "d:\\program files\\gnu arm embedded toolchain\\10 2021.10\\arm-none-eabi\\include\\sys\\_
 365              		.file 4 "backup/Inc/error_handle.h"
 366              		.file 5 "Module/UV_sensor/UV_sensor.h"
 367              		.file 6 "Module/SHT_sensor/SHT_sensor.h"
 368              		.file 7 "Module/CO2_sensor/CO2_sensor.h"
 369              		.file 8 "backup/Inc/instance.h"
 370              		.file 9 "d:\\program files\\gnu arm embedded toolchain\\10 2021.10\\arm-none-eabi\\include\\stdlib
ARM GAS  C:\Users\YKESH~1\AppData\Local\Temp\ccALT22H.s 			page 9

